	.text
	.syntax unified
	.eabi_attribute	67, "2.09"	@ Tag_conformance
	.cpu	cortex-a8
	.eabi_attribute	6, 10	@ Tag_CPU_arch
	.eabi_attribute	7, 65	@ Tag_CPU_arch_profile
	.eabi_attribute	8, 1	@ Tag_ARM_ISA_use
	.eabi_attribute	9, 2	@ Tag_THUMB_ISA_use
	.fpu	neon
	.eabi_attribute	17, 1	@ Tag_ABI_PCS_GOT_use
	.eabi_attribute	20, 2	@ Tag_ABI_FP_denormal
	.eabi_attribute	23, 1	@ Tag_ABI_FP_number_model
	.eabi_attribute	34, 1	@ Tag_CPU_unaligned_access
	.eabi_attribute	24, 1	@ Tag_ABI_align_needed
	.eabi_attribute	25, 1	@ Tag_ABI_align_preserved
	.eabi_attribute	28, 1	@ Tag_ABI_VFP_args
	.eabi_attribute	38, 1	@ Tag_ABI_FP_16bit_format
	.eabi_attribute	18, 4	@ Tag_ABI_PCS_wchar_t
	.eabi_attribute	26, 2	@ Tag_ABI_enum_size
	.eabi_attribute	14, 0	@ Tag_ABI_PCS_R9_use
	.eabi_attribute	68, 1	@ Tag_Virtualization_use
	.file	"/root/Bela/projects/Autotune/build/render.bc"
	.file	1 "/root/Bela/projects/Autotune" "render.cpp"
	.file	2 "/usr/include/ne10" "NE10_types.h"
	.file	3 "./libraries/Fft" "Fft.h"
	.file	4 "/usr/bin/../lib/gcc/arm-linux-gnueabihf/6.3.0/../../../../include/arm-linux-gnueabihf/c++/6.3.0/bits" "c++config.h"
	.file	5 "/usr/bin/../lib/gcc/arm-linux-gnueabihf/6.3.0/../../../../include/c++/6.3.0/bits" "alloc_traits.h"
	.file	6 "/usr/bin/../lib/gcc/arm-linux-gnueabihf/6.3.0/../../../../include/c++/6.3.0/ext" "new_allocator.h"
	.file	7 "/usr/bin/../lib/gcc/arm-linux-gnueabihf/6.3.0/../../../../include/arm-linux-gnueabihf/c++/6.3.0/bits" "c++allocator.h"
	.file	8 "/usr/bin/../lib/gcc/arm-linux-gnueabihf/6.3.0/../../../../include/c++/6.3.0/bits" "allocator.h"
	.file	9 "/usr/bin/../lib/gcc/arm-linux-gnueabihf/6.3.0/../../../../include/c++/6.3.0/ext" "alloc_traits.h"
	.file	10 "/usr/bin/../lib/gcc/arm-linux-gnueabihf/6.3.0/../../../../include/c++/6.3.0/bits" "stl_vector.h"
	.file	11 "/usr/bin/../lib/gcc/arm-linux-gnueabihf/6.3.0/../../../../include/c++/6.3.0" "type_traits"
	.file	12 "/usr/bin/../lib/gcc/arm-linux-gnueabihf/6.3.0/../../../../include/c++/6.3.0/bits" "stringfwd.h"
	.file	13 "/root/Bela/projects/Autotune" "MonoFilePlayer.h"
	.file	14 "./include" "Bela.h"
	.file	15 "./libraries/Scope" "Scope.h"
	.file	16 "/usr/bin/../lib/gcc/arm-linux-gnueabihf/6.3.0/../../../../include/c++/6.3.0/bits" "unique_ptr.h"
	.file	17 "/usr/bin/../lib/gcc/arm-linux-gnueabihf/6.3.0/../../../../include/c++/6.3.0" "tuple"
	.file	18 "/usr/bin/../lib/gcc/arm-linux-gnueabihf/6.3.0/../../../../include/c++/6.3.0/bits" "uses_allocator.h"
	.file	19 "/usr/bin/../lib/gcc/arm-linux-gnueabihf/6.3.0/../../../../include/c++/6.3.0/bits" "stl_tree.h"
	.file	20 "/usr/bin/../lib/gcc/arm-linux-gnueabihf/6.3.0/../../../../include/c++/6.3.0/bits" "stl_function.h"
	.file	21 "/usr/bin/../lib/gcc/arm-linux-gnueabihf/6.3.0/../../../../include/c++/6.3.0/bits" "stl_pair.h"
	.file	22 "/usr/bin/../lib/gcc/arm-linux-gnueabihf/6.3.0/../../../../include/c++/6.3.0/bits" "stl_map.h"
	.file	23 "./libraries/Gui" "Gui.h"
	.file	24 "/usr/bin/../lib/gcc/arm-linux-gnueabihf/6.3.0/../../../../include/c++/6.3.0" "functional"
	.file	25 "/usr/lib/llvm-3.9/bin/../lib/clang/3.9.1/include" "stddef.h"
	.file	26 "./libraries/GuiController" "GuiSlider.h"
	.file	27 "./include" "JSON.h"
	.file	28 "./libraries/GuiController" "GuiController.h"
	.file	29 "/usr/bin/../lib/gcc/arm-linux-gnueabihf/6.3.0/../../../../include/c++/6.3.0/ext" "concurrence.h"
	.file	30 "/usr/bin/../lib/gcc/arm-linux-gnueabihf/6.3.0/../../../../include/c++/6.3.0/bits" "basic_string.h"
	.file	31 "/usr/bin/../lib/gcc/arm-linux-gnueabihf/6.3.0/../../../../include/c++/6.3.0/bits" "cpp_type_traits.h"
	.file	32 "/usr/bin/../lib/gcc/arm-linux-gnueabihf/6.3.0/../../../../include/c++/6.3.0/bits" "char_traits.h"
	.file	33 "/usr/bin/../lib/gcc/arm-linux-gnueabihf/6.3.0/../../../../include/c++/6.3.0/bits" "stl_iterator.h"
	.file	34 "/usr/bin/../lib/gcc/arm-linux-gnueabihf/6.3.0/../../../../include/c++/6.3.0/bits" "stl_iterator_base_types.h"
	.file	35 "/usr/include" "stdlib.h"
	.file	36 "/usr/include/arm-linux-gnueabihf/bits" "stdlib-float.h"
	.file	37 "/usr/include/arm-linux-gnueabihf/bits" "stdlib-bsearch.h"
	.file	38 "/usr/bin/../lib/gcc/arm-linux-gnueabihf/6.3.0/../../../../include/c++/6.3.0" "cstdlib"
	.file	39 "/root/Bela/projects/Autotune/build" "render.cpp"
	.file	40 "/usr/bin/../lib/gcc/arm-linux-gnueabihf/6.3.0/../../../../include/c++/6.3.0/debug" "debug.h"
	.file	41 "/usr/bin/../lib/gcc/arm-linux-gnueabihf/6.3.0/../../../../include/c++/6.3.0/bits" "exception_ptr.h"
	.file	42 "/usr/include/arm-linux-gnueabihf/bits" "math-finite.h"
	.file	43 "/usr/include/arm-linux-gnueabihf/bits" "mathcalls.h"
	.file	44 "/usr/include/arm-linux-gnueabihf/bits" "mathdef.h"
	.file	45 "/usr/include" "wchar.h"
	.file	46 "/usr/include" "libio.h"
	.file	47 "/usr/include/arm-linux-gnueabihf/bits" "types.h"
	.file	48 "/usr/include" "stdio.h"
	.file	49 "/usr/lib/llvm-3.9/bin/../lib/clang/3.9.1/include" "stdarg.h"
	.file	50 "/usr/include" "time.h"
	.file	51 "/usr/include" "stdint.h"
	.file	52 "/usr/include" "locale.h"
	.file	53 "/usr/include" "ctype.h"
	.file	54 "/usr/include" "_G_config.h"
	.file	55 "/usr/include/arm-linux-gnueabihf/bits" "stdio.h"
	.file	56 "/usr/include" "string.h"
	.file	57 "/usr/include" "wctype.h"
	.section	.text._ZN3FftD2Ev,"axG",%progbits,_ZN3FftD2Ev,comdat
	.weak	_ZN3FftD2Ev
	.p2align	2
	.type	_ZN3FftD2Ev,%function
_ZN3FftD2Ev:                            @ @_ZN3FftD2Ev
.Lfunc_begin0:
	.loc	3 15 0                  @ ./libraries/Fft/Fft.h:15:0
	.fnstart
	.cfi_startproc
@ BB#0:
	.save	{r4, r10, r11, lr}
	push	{r4, r10, r11, lr}
.Ltmp3:
	.cfi_def_cfa_offset 16
.Ltmp4:
	.cfi_offset lr, -4
.Ltmp5:
	.cfi_offset r11, -8
.Ltmp6:
	.cfi_offset r10, -12
.Ltmp7:
	.cfi_offset r4, -16
	.setfp	r11, sp, #8
	add	r11, sp, #8
.Ltmp8:
	.cfi_def_cfa r11, 8
	@DEBUG_VALUE: ~Fft:this <- %R0
	mov	r4, r0
.Ltmp9:
	@DEBUG_VALUE: ~Fft:this <- %R4
	.loc	3 15 10 prologue_end    @ ./libraries/Fft/Fft.h:15:10
.Ltmp0:
	bl	_ZN3Fft7cleanupEv
.Ltmp1:
.Ltmp10:
@ BB#1:
	@DEBUG_VALUE: ~Fft:this <- %R4
	.loc	3 15 21 is_stmt 0 discriminator 1 @ ./libraries/Fft/Fft.h:15:21
	mov	r0, r4
	pop	{r4, r10, r11, pc}
.Ltmp11:
.LBB0_2:
	@DEBUG_VALUE: ~Fft:this <- %R4
.Ltmp2:
.Ltmp12:
	.loc	3 15 10 discriminator 2 @ ./libraries/Fft/Fft.h:15:10
	mov	lr, pc
	b	__clang_call_terminate
.Ltmp13:
.Lfunc_end0:
	.size	_ZN3FftD2Ev, .Lfunc_end0-_ZN3FftD2Ev
	.cfi_endproc
	.globl	__gxx_personality_v0
	.personality __gxx_personality_v0
	.handlerdata
	.p2align	2
GCC_except_table0:
.Lexception0:
	.byte	255                     @ @LPStart Encoding = omit
	.byte	0                       @ @TType Encoding = absptr
	.byte	21                      @ @TType base offset
	.byte	3                       @ Call site Encoding = udata4
	.byte	13                      @ Call site table length
	.long	.Ltmp0-.Lfunc_begin0    @ >> Call Site 1 <<
	.long	.Ltmp1-.Ltmp0           @   Call between .Ltmp0 and .Ltmp1
	.long	.Ltmp2-.Lfunc_begin0    @     jumps to .Ltmp2
	.byte	1                       @   On action: 1
	.byte	1                       @ >> Action Record 1 <<
                                        @   Catch TypeInfo 1
	.byte	0                       @   No further actions
                                        @ >> Catch TypeInfos <<
	.long	0                       @ TypeInfo 1
	.p2align	2
	.fnend

	.section	.text._ZNSt6vectorIfSaIfEED2Ev,"axG",%progbits,_ZNSt6vectorIfSaIfEED2Ev,comdat
	.weak	_ZNSt6vectorIfSaIfEED2Ev
	.p2align	2
	.type	_ZNSt6vectorIfSaIfEED2Ev,%function
_ZNSt6vectorIfSaIfEED2Ev:               @ @_ZNSt6vectorIfSaIfEED2Ev
.Lfunc_begin1:
	.loc	10 426 0 is_stmt 1      @ /usr/bin/../lib/gcc/arm-linux-gnueabihf/6.3.0/../../../../include/c++/6.3.0/bits/stl_vector.h:426:0
	.fnstart
	.cfi_startproc
@ BB#0:
	.save	{r4, r10, r11, lr}
	push	{r4, r10, r11, lr}
.Ltmp14:
	.cfi_def_cfa_offset 16
.Ltmp15:
	.cfi_offset lr, -4
.Ltmp16:
	.cfi_offset r11, -8
.Ltmp17:
	.cfi_offset r10, -12
.Ltmp18:
	.cfi_offset r4, -16
	.setfp	r11, sp, #8
	add	r11, sp, #8
.Ltmp19:
	.cfi_def_cfa r11, 8
	@DEBUG_VALUE: ~vector:this <- %R0
	mov	r4, r0
.Ltmp20:
	@DEBUG_VALUE: ~vector:this <- %R4
	.loc	10 160 37 prologue_end  @ /usr/bin/../lib/gcc/arm-linux-gnueabihf/6.3.0/../../../../include/c++/6.3.0/bits/stl_vector.h:160:37
	ldr	r0, [r4]
.Ltmp21:
	@DEBUG_VALUE: _M_deallocate:__p <- %R0
	@DEBUG_VALUE: deallocate:__p <- %R0
	@DEBUG_VALUE: deallocate:__p <- %R0
	.loc	10 177 6                @ /usr/bin/../lib/gcc/arm-linux-gnueabihf/6.3.0/../../../../include/c++/6.3.0/bits/stl_vector.h:177:6
	cmp	r0, #0
	beq	.LBB1_2
.Ltmp22:
@ BB#1:
	@DEBUG_VALUE: deallocate:__p <- %R0
	@DEBUG_VALUE: deallocate:__p <- %R0
	@DEBUG_VALUE: _M_deallocate:__p <- %R0
	@DEBUG_VALUE: ~vector:this <- %R4
	.loc	6 110 9                 @ /usr/bin/../lib/gcc/arm-linux-gnueabihf/6.3.0/../../../../include/c++/6.3.0/ext/new_allocator.h:110:9
	bl	_ZdlPv
.Ltmp23:
.LBB1_2:                                @ %_ZNSt12_Vector_baseIfSaIfEED2Ev.exit
	@DEBUG_VALUE: ~vector:this <- %R4
	.loc	10 427 33 discriminator 1 @ /usr/bin/../lib/gcc/arm-linux-gnueabihf/6.3.0/../../../../include/c++/6.3.0/bits/stl_vector.h:427:33
	mov	r0, r4
	pop	{r4, r10, r11, pc}
.Ltmp24:
.Lfunc_end1:
	.size	_ZNSt6vectorIfSaIfEED2Ev, .Lfunc_end1-_ZNSt6vectorIfSaIfEED2Ev
	.cfi_endproc
	.fnend

	.section	.text._ZN14MonoFilePlayerD2Ev,"axG",%progbits,_ZN14MonoFilePlayerD2Ev,comdat
	.weak	_ZN14MonoFilePlayerD2Ev
	.p2align	2
	.type	_ZN14MonoFilePlayerD2Ev,%function
_ZN14MonoFilePlayerD2Ev:                @ @_ZN14MonoFilePlayerD2Ev
.Lfunc_begin2:
	.loc	13 42 0                 @ /root/Bela/projects/Autotune/MonoFilePlayer.h:42:0
	.fnstart
	.cfi_startproc
@ BB#0:
	.save	{r4, r10, r11, lr}
	push	{r4, r10, r11, lr}
.Ltmp25:
	.cfi_def_cfa_offset 16
.Ltmp26:
	.cfi_offset lr, -4
.Ltmp27:
	.cfi_offset r11, -8
.Ltmp28:
	.cfi_offset r10, -12
.Ltmp29:
	.cfi_offset r4, -16
	.setfp	r11, sp, #8
	add	r11, sp, #8
.Ltmp30:
	.cfi_def_cfa r11, 8
	@DEBUG_VALUE: ~MonoFilePlayer:this <- %R0
	mov	r4, r0
.Ltmp31:
	@DEBUG_VALUE: ~MonoFilePlayer:this <- %R4
	.loc	10 160 37 prologue_end  @ /usr/bin/../lib/gcc/arm-linux-gnueabihf/6.3.0/../../../../include/c++/6.3.0/bits/stl_vector.h:160:37
	ldr	r0, [r4]
.Ltmp32:
	@DEBUG_VALUE: _M_deallocate:__p <- %R0
	@DEBUG_VALUE: deallocate:__p <- %R0
	@DEBUG_VALUE: deallocate:__p <- %R0
	.loc	10 177 6                @ /usr/bin/../lib/gcc/arm-linux-gnueabihf/6.3.0/../../../../include/c++/6.3.0/bits/stl_vector.h:177:6
	cmp	r0, #0
	beq	.LBB2_2
.Ltmp33:
@ BB#1:
	@DEBUG_VALUE: deallocate:__p <- %R0
	@DEBUG_VALUE: deallocate:__p <- %R0
	@DEBUG_VALUE: _M_deallocate:__p <- %R0
	@DEBUG_VALUE: ~MonoFilePlayer:this <- %R4
	.loc	6 110 9                 @ /usr/bin/../lib/gcc/arm-linux-gnueabihf/6.3.0/../../../../include/c++/6.3.0/ext/new_allocator.h:110:9
	bl	_ZdlPv
.Ltmp34:
.LBB2_2:                                @ %_ZNSt6vectorIfSaIfEED2Ev.exit
	@DEBUG_VALUE: ~MonoFilePlayer:this <- %R4
	.loc	13 42 21                @ /root/Bela/projects/Autotune/MonoFilePlayer.h:42:21
	mov	r0, r4
	pop	{r4, r10, r11, pc}
.Ltmp35:
.Lfunc_end2:
	.size	_ZN14MonoFilePlayerD2Ev, .Lfunc_end2-_ZN14MonoFilePlayerD2Ev
	.cfi_endproc
	.fnend

	.text
	.globl	setup
	.p2align	4
	.type	setup,%function
setup:                                  @ @setup
.Lfunc_begin3:
	.loc	1 81 0                  @ /root/Bela/projects/Autotune/render.cpp:81:0
	.fnstart
	.cfi_startproc
@ BB#0:
	.save	{r4, r5, r6, r7, r8, r9, r11, lr}
	push	{r4, r5, r6, r7, r8, r9, r11, lr}
.Ltmp60:
	.cfi_def_cfa_offset 32
.Ltmp61:
	.cfi_offset lr, -4
.Ltmp62:
	.cfi_offset r11, -8
.Ltmp63:
	.cfi_offset r9, -12
.Ltmp64:
	.cfi_offset r8, -16
.Ltmp65:
	.cfi_offset r7, -20
.Ltmp66:
	.cfi_offset r6, -24
.Ltmp67:
	.cfi_offset r5, -28
.Ltmp68:
	.cfi_offset r4, -32
	.setfp	r11, sp, #24
	add	r11, sp, #24
.Ltmp69:
	.cfi_def_cfa r11, 8
	.vsave	{d8, d9, d10, d11, d12, d13, d14, d15}
	vpush	{d8, d9, d10, d11, d12, d13, d14, d15}
.Ltmp70:
	.cfi_offset d15, -40
.Ltmp71:
	.cfi_offset d14, -48
.Ltmp72:
	.cfi_offset d13, -56
.Ltmp73:
	.cfi_offset d12, -64
.Ltmp74:
	.cfi_offset d11, -72
.Ltmp75:
	.cfi_offset d10, -80
.Ltmp76:
	.cfi_offset d9, -88
.Ltmp77:
	.cfi_offset d8, -96
	.pad	#144
	sub	sp, sp, #144
	@DEBUG_VALUE: setup:context <- %R0
	@DEBUG_VALUE: setup:userData <- %R1
.Ltmp78:
	.loc	1 83 14 prologue_end    @ /root/Bela/projects/Autotune/render.cpp:83:14
	movw	r4, :lower16:.L_MergedGlobals.2
	movw	r5, :lower16:gPlayer
	movt	r4, :upper16:.L_MergedGlobals.2
	add	r1, r4, #16
.Ltmp79:
	@DEBUG_VALUE: _M_data:this <- %R1
	@DEBUG_VALUE: c_str:this <- %R1
	movt	r5, :upper16:gPlayer
	mov	r8, r0
.Ltmp80:
	@DEBUG_VALUE: setup:context <- %R8
	mov	r0, r5
	mov	r2, #1
	mov	r3, #1
	bl	_ZN14MonoFilePlayer5setupERKNSt7__cxx1112basic_stringIcSt11char_traitsIcESaIcEEEbb
.Ltmp81:
	.loc	30 136 28               @ /usr/bin/../lib/gcc/arm-linux-gnueabihf/6.3.0/../../../../include/c++/6.3.0/bits/basic_string.h:136:28
	ldr	r1, [r4, #16]
.Ltmp82:
	.loc	1 83 5                  @ /root/Bela/projects/Autotune/render.cpp:83:5
	cmp	r0, #0
	beq	.LBB3_3
.Ltmp83:
@ BB#1:
	@DEBUG_VALUE: setup:context <- %R8
	.loc	10 656 66               @ /usr/bin/../lib/gcc/arm-linux-gnueabihf/6.3.0/../../../../include/c++/6.3.0/bits/stl_vector.h:656:66
	ldm	r5, {r0, r2}
	.loc	10 656 50 is_stmt 0     @ /usr/bin/../lib/gcc/arm-linux-gnueabihf/6.3.0/../../../../include/c++/6.3.0/bits/stl_vector.h:656:50
	sub	r0, r2, r0
.Ltmp84:
	.loc	1 91 34 is_stmt 1       @ /root/Bela/projects/Autotune/render.cpp:91:34
	vldr	s0, [r8, #32]
.Ltmp85:
	.loc	10 656 50               @ /usr/bin/../lib/gcc/arm-linux-gnueabihf/6.3.0/../../../../include/c++/6.3.0/bits/stl_vector.h:656:50
	asr	r2, r0, #2
.Ltmp86:
	.loc	1 89 5                  @ /root/Bela/projects/Autotune/render.cpp:89:5
	movw	r0, :lower16:.L.str.14
	.loc	1 91 8                  @ /root/Bela/projects/Autotune/render.cpp:91:8
	vmov	s2, r2
	.loc	1 89 5                  @ /root/Bela/projects/Autotune/render.cpp:89:5
	movt	r0, :upper16:.L.str.14
	.loc	1 91 8                  @ /root/Bela/projects/Autotune/render.cpp:91:8
	vcvt.f32.u32	d1, d1
	.loc	1 91 23 is_stmt 0       @ /root/Bela/projects/Autotune/render.cpp:91:23
	vdiv.f32	s0, s2, s0
	.loc	1 91 8                  @ /root/Bela/projects/Autotune/render.cpp:91:8
	vcvt.f64.f32	d16, s0
	.loc	1 89 5 is_stmt 1        @ /root/Bela/projects/Autotune/render.cpp:89:5
	vstr	d16, [sp]
	bl	rt_printf
	.loc	1 94 7                  @ /root/Bela/projects/Autotune/render.cpp:94:7
	movw	r9, :lower16:.L_MergedGlobals.2
	mov	r1, #1024
	movt	r9, :upper16:.L_MergedGlobals.2
	mov	r0, r9
	bl	_ZN3Fft5setupEj
.Ltmp87:
	@DEBUG_VALUE: resize:__new_size <- 16384
	.loc	10 656 40               @ /usr/bin/../lib/gcc/arm-linux-gnueabihf/6.3.0/../../../../include/c++/6.3.0/bits/stl_vector.h:656:40
	movw	r4, :lower16:.L_MergedGlobals
	mov	r2, #0
	movt	r4, :upper16:.L_MergedGlobals
	.loc	10 656 66 is_stmt 0     @ /usr/bin/../lib/gcc/arm-linux-gnueabihf/6.3.0/../../../../include/c++/6.3.0/bits/stl_vector.h:656:66
	ldrd	r0, r1, [r4, #64]
	.loc	10 656 50               @ /usr/bin/../lib/gcc/arm-linux-gnueabihf/6.3.0/../../../../include/c++/6.3.0/bits/stl_vector.h:656:50
	sub	r1, r1, r0
	asr	r1, r1, #2
.Ltmp88:
	.loc	10 676 6 is_stmt 1      @ /usr/bin/../lib/gcc/arm-linux-gnueabihf/6.3.0/../../../../include/c++/6.3.0/bits/stl_vector.h:676:6
	cmp	r2, r1, lsr #14
.Ltmp89:
	@DEBUG_VALUE: size:this <- %R5
	@DEBUG_VALUE: size:this <- %R5
	bne	.LBB3_4
.Ltmp90:
@ BB#2:
	@DEBUG_VALUE: size:this <- %R5
	@DEBUG_VALUE: size:this <- %R5
	@DEBUG_VALUE: setup:context <- %R8
	.loc	10 677 4 discriminator 1 @ /usr/bin/../lib/gcc/arm-linux-gnueabihf/6.3.0/../../../../include/c++/6.3.0/bits/stl_vector.h:677:4
	add	r0, r4, #64
.Ltmp91:
	@DEBUG_VALUE: _M_erase_at_end:this <- %R0
	.loc	10 677 33 is_stmt 0     @ /usr/bin/../lib/gcc/arm-linux-gnueabihf/6.3.0/../../../../include/c++/6.3.0/bits/stl_vector.h:677:33
	rsb	r1, r1, #16384
	.loc	10 677 4 discriminator 1 @ /usr/bin/../lib/gcc/arm-linux-gnueabihf/6.3.0/../../../../include/c++/6.3.0/bits/stl_vector.h:677:4
	bl	_ZNSt6vectorIfSaIfEE17_M_default_appendEj
.Ltmp92:
	b	.LBB3_5
.Ltmp93:
.LBB3_3:
	@DEBUG_VALUE: setup:context <- %R8
	.loc	1 84 6 is_stmt 1 discriminator 1 @ /root/Bela/projects/Autotune/render.cpp:84:6
	movw	r0, :lower16:.L.str.13
	movt	r0, :upper16:.L.str.13
	bl	rt_printf
	mov	r0, #0
	b	.LBB3_48
.Ltmp94:
.LBB3_4:
	@DEBUG_VALUE: size:this <- %R5
	@DEBUG_VALUE: size:this <- %R5
	@DEBUG_VALUE: setup:context <- %R8
	.loc	10 678 11               @ /usr/bin/../lib/gcc/arm-linux-gnueabihf/6.3.0/../../../../include/c++/6.3.0/bits/stl_vector.h:678:11
	cmp	r1, #16384
.Ltmp95:
	.loc	10 679 43               @ /usr/bin/../lib/gcc/arm-linux-gnueabihf/6.3.0/../../../../include/c++/6.3.0/bits/stl_vector.h:679:43
	addne	r0, r0, #65536
.Ltmp96:
	@DEBUG_VALUE: _M_erase_at_end:__pos <- %R0
	.loc	10 1437 26              @ /usr/bin/../lib/gcc/arm-linux-gnueabihf/6.3.0/../../../../include/c++/6.3.0/bits/stl_vector.h:1437:26
	strne	r0, [r4, #68]
.Ltmp97:
.LBB3_5:                                @ %_ZNSt6vectorIfSaIfEE6resizeEj.exit
	@DEBUG_VALUE: size:this <- %R5
	@DEBUG_VALUE: size:this <- %R5
	@DEBUG_VALUE: setup:context <- %R8
	@DEBUG_VALUE: resize:__new_size <- 16384
	.loc	10 656 66               @ /usr/bin/../lib/gcc/arm-linux-gnueabihf/6.3.0/../../../../include/c++/6.3.0/bits/stl_vector.h:656:66
	ldrd	r0, r1, [r4, #88]
	mov	r2, #0
	.loc	10 656 50 is_stmt 0     @ /usr/bin/../lib/gcc/arm-linux-gnueabihf/6.3.0/../../../../include/c++/6.3.0/bits/stl_vector.h:656:50
	sub	r1, r1, r0
	asr	r1, r1, #2
.Ltmp98:
	.loc	10 676 6 is_stmt 1      @ /usr/bin/../lib/gcc/arm-linux-gnueabihf/6.3.0/../../../../include/c++/6.3.0/bits/stl_vector.h:676:6
	cmp	r2, r1, lsr #14
	bne	.LBB3_7
.Ltmp99:
@ BB#6:
	@DEBUG_VALUE: size:this <- %R5
	@DEBUG_VALUE: size:this <- %R5
	@DEBUG_VALUE: setup:context <- %R8
	.loc	10 677 4 discriminator 1 @ /usr/bin/../lib/gcc/arm-linux-gnueabihf/6.3.0/../../../../include/c++/6.3.0/bits/stl_vector.h:677:4
	add	r0, r4, #88
.Ltmp100:
	@DEBUG_VALUE: _M_erase_at_end:this <- %R0
	.loc	10 677 33 is_stmt 0     @ /usr/bin/../lib/gcc/arm-linux-gnueabihf/6.3.0/../../../../include/c++/6.3.0/bits/stl_vector.h:677:33
	rsb	r1, r1, #16384
	.loc	10 677 4 discriminator 1 @ /usr/bin/../lib/gcc/arm-linux-gnueabihf/6.3.0/../../../../include/c++/6.3.0/bits/stl_vector.h:677:4
	bl	_ZNSt6vectorIfSaIfEE17_M_default_appendEj
.Ltmp101:
	b	.LBB3_8
.Ltmp102:
.LBB3_7:
	@DEBUG_VALUE: size:this <- %R5
	@DEBUG_VALUE: size:this <- %R5
	@DEBUG_VALUE: setup:context <- %R8
	.loc	10 678 11 is_stmt 1     @ /usr/bin/../lib/gcc/arm-linux-gnueabihf/6.3.0/../../../../include/c++/6.3.0/bits/stl_vector.h:678:11
	cmp	r1, #16384
.Ltmp103:
	.loc	10 679 43               @ /usr/bin/../lib/gcc/arm-linux-gnueabihf/6.3.0/../../../../include/c++/6.3.0/bits/stl_vector.h:679:43
	addne	r0, r0, #65536
.Ltmp104:
	@DEBUG_VALUE: _M_erase_at_end:__pos <- %R0
	.loc	10 1437 26              @ /usr/bin/../lib/gcc/arm-linux-gnueabihf/6.3.0/../../../../include/c++/6.3.0/bits/stl_vector.h:1437:26
	strne	r0, [r4, #92]
.Ltmp105:
.LBB3_8:                                @ %_ZNSt6vectorIfSaIfEE6resizeEj.exit24
	@DEBUG_VALUE: size:this <- %R5
	@DEBUG_VALUE: size:this <- %R5
	@DEBUG_VALUE: setup:context <- %R8
	@DEBUG_VALUE: resize:__new_size <- %R1
	.loc	10 656 66               @ /usr/bin/../lib/gcc/arm-linux-gnueabihf/6.3.0/../../../../include/c++/6.3.0/bits/stl_vector.h:656:66
	ldr	r0, [r4, #76]
	.loc	10 656 40 is_stmt 0     @ /usr/bin/../lib/gcc/arm-linux-gnueabihf/6.3.0/../../../../include/c++/6.3.0/bits/stl_vector.h:656:40
	ldr	r2, [r4, #80]
.Ltmp106:
	.loc	1 97 43 is_stmt 1       @ /root/Bela/projects/Autotune/render.cpp:97:43
	ldr	r1, [r8, #20]
.Ltmp107:
	.loc	10 656 50               @ /usr/bin/../lib/gcc/arm-linux-gnueabihf/6.3.0/../../../../include/c++/6.3.0/bits/stl_vector.h:656:50
	sub	r3, r2, r0
	asr	r2, r3, #2
.Ltmp108:
	.loc	10 676 6                @ /usr/bin/../lib/gcc/arm-linux-gnueabihf/6.3.0/../../../../include/c++/6.3.0/bits/stl_vector.h:676:6
	cmp	r1, r3, asr #2
	bls	.LBB3_10
.Ltmp109:
@ BB#9:
	@DEBUG_VALUE: size:this <- %R5
	@DEBUG_VALUE: size:this <- %R5
	@DEBUG_VALUE: setup:context <- %R8
	.loc	10 677 33               @ /usr/bin/../lib/gcc/arm-linux-gnueabihf/6.3.0/../../../../include/c++/6.3.0/bits/stl_vector.h:677:33
	sub	r1, r1, r2
	.loc	10 677 4 is_stmt 0 discriminator 1 @ /usr/bin/../lib/gcc/arm-linux-gnueabihf/6.3.0/../../../../include/c++/6.3.0/bits/stl_vector.h:677:4
	add	r0, r4, #76
.Ltmp110:
	@DEBUG_VALUE: _M_erase_at_end:this <- %R0
	bl	_ZNSt6vectorIfSaIfEE17_M_default_appendEj
.Ltmp111:
	b	.LBB3_11
.Ltmp112:
.LBB3_10:
	@DEBUG_VALUE: size:this <- %R5
	@DEBUG_VALUE: size:this <- %R5
	@DEBUG_VALUE: setup:context <- %R8
	.loc	10 678 11 is_stmt 1     @ /usr/bin/../lib/gcc/arm-linux-gnueabihf/6.3.0/../../../../include/c++/6.3.0/bits/stl_vector.h:678:11
	cmp	r1, r2
.Ltmp113:
	.loc	10 679 43               @ /usr/bin/../lib/gcc/arm-linux-gnueabihf/6.3.0/../../../../include/c++/6.3.0/bits/stl_vector.h:679:43
	addlo	r0, r0, r1, lsl #2
.Ltmp114:
	@DEBUG_VALUE: _M_erase_at_end:__pos <- %R0
	.loc	10 1437 26              @ /usr/bin/../lib/gcc/arm-linux-gnueabihf/6.3.0/../../../../include/c++/6.3.0/bits/stl_vector.h:1437:26
	strlo	r0, [r4, #80]
.Ltmp115:
.LBB3_11:                               @ %_ZNSt6vectorIfSaIfEE6resizeEj.exit25
	@DEBUG_VALUE: size:this <- %R5
	@DEBUG_VALUE: size:this <- %R5
	@DEBUG_VALUE: setup:context <- %R8
	@DEBUG_VALUE: resize:__new_size <- 1024
	.loc	10 656 66               @ /usr/bin/../lib/gcc/arm-linux-gnueabihf/6.3.0/../../../../include/c++/6.3.0/bits/stl_vector.h:656:66
	ldr	r0, [r4, #100]
	mov	r2, #0
	.loc	10 656 40 is_stmt 0     @ /usr/bin/../lib/gcc/arm-linux-gnueabihf/6.3.0/../../../../include/c++/6.3.0/bits/stl_vector.h:656:40
	ldr	r1, [r4, #104]
	.loc	10 656 50               @ /usr/bin/../lib/gcc/arm-linux-gnueabihf/6.3.0/../../../../include/c++/6.3.0/bits/stl_vector.h:656:50
	sub	r1, r1, r0
	asr	r1, r1, #2
.Ltmp116:
	.loc	10 676 6 is_stmt 1      @ /usr/bin/../lib/gcc/arm-linux-gnueabihf/6.3.0/../../../../include/c++/6.3.0/bits/stl_vector.h:676:6
	cmp	r2, r1, lsr #10
	bne	.LBB3_13
.Ltmp117:
@ BB#12:
	@DEBUG_VALUE: size:this <- %R5
	@DEBUG_VALUE: size:this <- %R5
	@DEBUG_VALUE: setup:context <- %R8
	.loc	10 677 4 discriminator 1 @ /usr/bin/../lib/gcc/arm-linux-gnueabihf/6.3.0/../../../../include/c++/6.3.0/bits/stl_vector.h:677:4
	add	r0, r4, #100
.Ltmp118:
	@DEBUG_VALUE: _M_erase_at_end:this <- %R0
	.loc	10 677 33 is_stmt 0     @ /usr/bin/../lib/gcc/arm-linux-gnueabihf/6.3.0/../../../../include/c++/6.3.0/bits/stl_vector.h:677:33
	rsb	r1, r1, #1024
	.loc	10 677 4 discriminator 1 @ /usr/bin/../lib/gcc/arm-linux-gnueabihf/6.3.0/../../../../include/c++/6.3.0/bits/stl_vector.h:677:4
	bl	_ZNSt6vectorIfSaIfEE17_M_default_appendEj
.Ltmp119:
	b	.LBB3_14
.Ltmp120:
.LBB3_13:
	@DEBUG_VALUE: size:this <- %R5
	@DEBUG_VALUE: size:this <- %R5
	@DEBUG_VALUE: setup:context <- %R8
	.loc	10 678 11 is_stmt 1     @ /usr/bin/../lib/gcc/arm-linux-gnueabihf/6.3.0/../../../../include/c++/6.3.0/bits/stl_vector.h:678:11
	cmp	r1, #1024
.Ltmp121:
	.loc	10 679 43               @ /usr/bin/../lib/gcc/arm-linux-gnueabihf/6.3.0/../../../../include/c++/6.3.0/bits/stl_vector.h:679:43
	addne	r0, r0, #4096
.Ltmp122:
	@DEBUG_VALUE: _M_erase_at_end:__pos <- %R0
	.loc	10 1437 26              @ /usr/bin/../lib/gcc/arm-linux-gnueabihf/6.3.0/../../../../include/c++/6.3.0/bits/stl_vector.h:1437:26
	strne	r0, [r4, #104]
.Ltmp123:
.LBB3_14:                               @ %_ZNSt6vectorIfSaIfEE6resizeEj.exit26
	@DEBUG_VALUE: size:this <- %R5
	@DEBUG_VALUE: size:this <- %R5
	@DEBUG_VALUE: setup:context <- %R8
	@DEBUG_VALUE: resize:__new_size <- 1024
	.loc	10 656 66               @ /usr/bin/../lib/gcc/arm-linux-gnueabihf/6.3.0/../../../../include/c++/6.3.0/bits/stl_vector.h:656:66
	ldrd	r6, r7, [r4, #112]
	.loc	10 656 50 is_stmt 0     @ /usr/bin/../lib/gcc/arm-linux-gnueabihf/6.3.0/../../../../include/c++/6.3.0/bits/stl_vector.h:656:50
	sub	r0, r7, r6
	asr	r1, r0, #2
	mov	r0, #0
.Ltmp124:
	.loc	10 676 6 is_stmt 1      @ /usr/bin/../lib/gcc/arm-linux-gnueabihf/6.3.0/../../../../include/c++/6.3.0/bits/stl_vector.h:676:6
	cmp	r0, r1, lsr #10
	bne	.LBB3_16
.Ltmp125:
@ BB#15:
	@DEBUG_VALUE: size:this <- %R5
	@DEBUG_VALUE: size:this <- %R5
	@DEBUG_VALUE: setup:context <- %R8
	.loc	10 677 4 discriminator 1 @ /usr/bin/../lib/gcc/arm-linux-gnueabihf/6.3.0/../../../../include/c++/6.3.0/bits/stl_vector.h:677:4
	add	r0, r4, #112
.Ltmp126:
	@DEBUG_VALUE: _M_erase_at_end:this <- %R0
	.loc	10 677 33 is_stmt 0     @ /usr/bin/../lib/gcc/arm-linux-gnueabihf/6.3.0/../../../../include/c++/6.3.0/bits/stl_vector.h:677:33
	rsb	r1, r1, #1024
	.loc	10 677 4 discriminator 1 @ /usr/bin/../lib/gcc/arm-linux-gnueabihf/6.3.0/../../../../include/c++/6.3.0/bits/stl_vector.h:677:4
	bl	_ZNSt6vectorIfSaIfEE17_M_default_appendEj
.Ltmp127:
	.loc	10 781 32 is_stmt 1     @ /usr/bin/../lib/gcc/arm-linux-gnueabihf/6.3.0/../../../../include/c++/6.3.0/bits/stl_vector.h:781:32
	ldr	r6, [r4, #112]
	b	.LBB3_17
.Ltmp128:
.LBB3_16:
	@DEBUG_VALUE: size:this <- %R5
	@DEBUG_VALUE: size:this <- %R5
	@DEBUG_VALUE: setup:context <- %R8
	.loc	10 678 11               @ /usr/bin/../lib/gcc/arm-linux-gnueabihf/6.3.0/../../../../include/c++/6.3.0/bits/stl_vector.h:678:11
	cmp	r1, #1024
.Ltmp129:
	.loc	10 679 43               @ /usr/bin/../lib/gcc/arm-linux-gnueabihf/6.3.0/../../../../include/c++/6.3.0/bits/stl_vector.h:679:43
	addne	r0, r6, #4096
.Ltmp130:
	@DEBUG_VALUE: _M_erase_at_end:__pos <- %R0
	.loc	10 1437 26              @ /usr/bin/../lib/gcc/arm-linux-gnueabihf/6.3.0/../../../../include/c++/6.3.0/bits/stl_vector.h:1437:26
	strne	r0, [r4, #116]
.Ltmp131:
.LBB3_17:                               @ %_ZNSt6vectorIfSaIfEE6resizeEj.exit27.preheader
	@DEBUG_VALUE: size:this <- %R5
	@DEBUG_VALUE: size:this <- %R5
	@DEBUG_VALUE: setup:context <- %R8
	.loc	10 781 32               @ /usr/bin/../lib/gcc/arm-linux-gnueabihf/6.3.0/../../../../include/c++/6.3.0/bits/stl_vector.h:781:32
	ldr	r7, [r4, #100]
.Ltmp132:
	.loc	1 102 2 discriminator 1 @ /root/Bela/projects/Autotune/render.cpp:102:2
	add	r0, r6, #4096
	cmp	r7, r0
	addlo	r0, r7, #4096
	cmplo	r6, r0
	blo	.LBB3_20
.Ltmp133:
@ BB#18:                                @ %vector.body.preheader
	@DEBUG_VALUE: size:this <- %R5
	@DEBUG_VALUE: size:this <- %R5
	@DEBUG_VALUE: setup:context <- %R8
	adr	r0, .LCPI3_5
.Ltmp134:
	.loc	1 104 83                @ /root/Bela/projects/Autotune/render.cpp:104:83
	vldr	d12, .LCPI3_4
	vld1.64	{d10, d11}, [r0:128]
	mov	r5, #1024
.Ltmp135:
.LBB3_19:                               @ %vector.body
                                        @ =>This Inner Loop Header: Depth=1
	.loc	1 104 81 is_stmt 0      @ /root/Bela/projects/Autotune/render.cpp:104:81
	vcvt.f64.s32	d16, s23
	.loc	1 104 83                @ /root/Bela/projects/Autotune/render.cpp:104:83
	vmul.f64	d16, d16, d12
	.loc	1 104 81                @ /root/Bela/projects/Autotune/render.cpp:104:81
	vcvt.f64.s32	d17, s22
	vcvt.f64.s32	d18, s21
	vcvt.f64.s32	d19, s20
	.loc	1 104 50                @ /root/Bela/projects/Autotune/render.cpp:104:50
	vcvt.f32.f64	s0, d16
	.loc	1 104 83                @ /root/Bela/projects/Autotune/render.cpp:104:83
	vmul.f64	d13, d17, d12
	vmul.f64	d14, d18, d12
	vmul.f64	d15, d19, d12
	.loc	1 104 45                @ /root/Bela/projects/Autotune/render.cpp:104:45
	bl	cosf
	vmov.f32	s19, s0
	.loc	1 104 50                @ /root/Bela/projects/Autotune/render.cpp:104:50
	vcvt.f32.f64	s0, d13
	.loc	1 104 45                @ /root/Bela/projects/Autotune/render.cpp:104:45
	bl	cosf
	vmov.f32	s18, s0
	.loc	1 104 50                @ /root/Bela/projects/Autotune/render.cpp:104:50
	vcvt.f32.f64	s0, d14
	.loc	1 104 45                @ /root/Bela/projects/Autotune/render.cpp:104:45
	bl	cosf
	vmov.f32	s17, s0
	.loc	1 104 50                @ /root/Bela/projects/Autotune/render.cpp:104:50
	vcvt.f32.f64	s0, d15
	.loc	1 104 45                @ /root/Bela/projects/Autotune/render.cpp:104:45
	bl	cosf
.Ltmp136:
	.loc	10 781 41 is_stmt 1     @ /usr/bin/../lib/gcc/arm-linux-gnueabihf/6.3.0/../../../../include/c++/6.3.0/bits/stl_vector.h:781:41
	vmov.32	r0, d10[0]
.Ltmp137:
	.loc	1 104 45                @ /root/Bela/projects/Autotune/render.cpp:104:45
	vmov.f32	s16, s0
	.loc	1 104 43 is_stmt 0      @ /root/Bela/projects/Autotune/render.cpp:104:43
	vmov.f32	q8, #1.000000e+00
.Ltmp138:
	.loc	1 102 2 is_stmt 1 discriminator 1 @ /root/Bela/projects/Autotune/render.cpp:102:2
	subs	r5, r5, #4
.Ltmp139:
	.loc	1 104 35                @ /root/Bela/projects/Autotune/render.cpp:104:35
	vmov.i32	q9, #0x3f000000
	.loc	1 104 43 is_stmt 0      @ /root/Bela/projects/Autotune/render.cpp:104:43
	vsub.f32	q8, q8, q4
	.loc	1 104 35                @ /root/Bela/projects/Autotune/render.cpp:104:35
	vmul.f32	q8, q8, q9
.Ltmp140:
	.loc	1 102 2 is_stmt 1 discriminator 1 @ /root/Bela/projects/Autotune/render.cpp:102:2
	vmov.i32	q9, #0x4
	vadd.i32	q5, q5, q9
.Ltmp141:
	.loc	10 781 41               @ /usr/bin/../lib/gcc/arm-linux-gnueabihf/6.3.0/../../../../include/c++/6.3.0/bits/stl_vector.h:781:41
	add	r1, r7, r0, lsl #2
.Ltmp142:
	.loc	10 781 41 is_stmt 0     @ /usr/bin/../lib/gcc/arm-linux-gnueabihf/6.3.0/../../../../include/c++/6.3.0/bits/stl_vector.h:781:41
	add	r0, r6, r0, lsl #2
.Ltmp143:
	.loc	1 104 28 is_stmt 1      @ /root/Bela/projects/Autotune/render.cpp:104:28
	vst1.32	{d16, d17}, [r1]
	.loc	1 105 29                @ /root/Bela/projects/Autotune/render.cpp:105:29
	vst1.32	{d16, d17}, [r0]
	bne	.LBB3_19
	b	.LBB3_22
.LBB3_20:                               @ %_ZNSt6vectorIfSaIfEE6resizeEj.exit27.preheader69
.Ltmp144:
	@DEBUG_VALUE: size:this <- %R5
	@DEBUG_VALUE: size:this <- %R5
	@DEBUG_VALUE: setup:context <- %R8
	vmov.f64	d10, #1.000000e+00
	mov	r5, #0
.Ltmp145:
	vmov.i32	d8, #0x0
	.loc	1 104 83                @ /root/Bela/projects/Autotune/render.cpp:104:83
	vldr	d9, .LCPI3_1
	.loc	1 104 43 is_stmt 0      @ /root/Bela/projects/Autotune/render.cpp:104:43
	vmov.f32	d11, #1.000000e+00
	.loc	1 104 35                @ /root/Bela/projects/Autotune/render.cpp:104:35
	vmov.f32	d12, #5.000000e-01
.Ltmp146:
.LBB3_21:                               @ %_ZNSt6vectorIfSaIfEE6resizeEj.exit27
                                        @ =>This Inner Loop Header: Depth=1
	.loc	1 104 83                @ /root/Bela/projects/Autotune/render.cpp:104:83
	vmul.f64	d16, d8, d9
	.loc	1 104 50                @ /root/Bela/projects/Autotune/render.cpp:104:50
	vcvt.f32.f64	s0, d16
	.loc	1 104 45                @ /root/Bela/projects/Autotune/render.cpp:104:45
	bl	cosf
                                        @ kill: %S0<def> %S0<kill> %D0<def>
	vadd.f64	d8, d8, d10
	.loc	1 104 28                @ /root/Bela/projects/Autotune/render.cpp:104:28
	add	r0, r7, r5
	.loc	1 104 43                @ /root/Bela/projects/Autotune/render.cpp:104:43
	vsub.f32	d16, d11, d0
	.loc	1 104 35                @ /root/Bela/projects/Autotune/render.cpp:104:35
	vmul.f32	d0, d16, d12
	.loc	1 104 28                @ /root/Bela/projects/Autotune/render.cpp:104:28
	vstr	s0, [r0]
	.loc	1 105 29 is_stmt 1      @ /root/Bela/projects/Autotune/render.cpp:105:29
	add	r0, r6, r5
.Ltmp147:
	.loc	1 102 2 discriminator 1 @ /root/Bela/projects/Autotune/render.cpp:102:2
	add	r5, r5, #4
.Ltmp148:
	.loc	1 105 29                @ /root/Bela/projects/Autotune/render.cpp:105:29
	vstr	s0, [r0]
.Ltmp149:
	.loc	1 102 2 discriminator 1 @ /root/Bela/projects/Autotune/render.cpp:102:2
	cmp	r5, #4096
	bne	.LBB3_21
.Ltmp150:
.LBB3_22:                               @ %middle.block
	.loc	1 109 9                 @ /root/Bela/projects/Autotune/render.cpp:109:9
	movw	r0, :lower16:gScope
	.loc	1 109 27 is_stmt 0      @ /root/Bela/projects/Autotune/render.cpp:109:27
	vldr	s0, [r8, #32]
	.loc	1 109 9                 @ /root/Bela/projects/Autotune/render.cpp:109:9
	movt	r0, :upper16:gScope
	mov	r1, #2
	bl	_ZN5Scope5setupEjf
	.loc	1 112 13 is_stmt 1      @ /root/Bela/projects/Autotune/render.cpp:112:13
	add	r6, r8, #92
.Ltmp151:
	@DEBUG_VALUE: basic_string:__s <- %R6
	@DEBUG_VALUE: length:__s <- %R6
	@DEBUG_VALUE: _M_construct<const char *>:__beg <- %R6
	@DEBUG_VALUE: _M_construct_aux<const char *>:__beg <- %R6
	@DEBUG_VALUE: _M_construct<const char *>:__beg <- %R6
	@DEBUG_VALUE: _S_copy_chars:__k1 <- %R6
	@DEBUG_VALUE: _S_copy:__s <- %R6
	@DEBUG_VALUE: assign:__c2 <- %R6
	add	r0, sp, #104
.Ltmp152:
	@DEBUG_VALUE: _M_construct<const char *>:this <- %R0
	@DEBUG_VALUE: _M_construct_aux<const char *>:this <- %R0
	@DEBUG_VALUE: _M_construct<const char *>:this <- %R0
	@DEBUG_VALUE: _M_local_data:this <- %R0
	.loc	30 142 51               @ /usr/bin/../lib/gcc/arm-linux-gnueabihf/6.3.0/../../../../include/c++/6.3.0/bits/basic_string.h:142:51
	add	r5, r0, #8
.Ltmp153:
	.loc	30 110 25               @ /usr/bin/../lib/gcc/arm-linux-gnueabihf/6.3.0/../../../../include/c++/6.3.0/bits/basic_string.h:110:25
	str	r5, [sp, #104]
.Ltmp154:
	.loc	32 267 16               @ /usr/bin/../lib/gcc/arm-linux-gnueabihf/6.3.0/../../../../include/c++/6.3.0/bits/char_traits.h:267:16
	mov	r0, r6
.Ltmp155:
	bl	strlen
	mov	r7, r0
.Ltmp156:
	@DEBUG_VALUE: _M_construct<const char *>:__dnew <- %R7
	@DEBUG_VALUE: _S_copy:__n <- %R7
	.file	58 "/usr/bin/../lib/gcc/arm-linux-gnueabihf/6.3.0/../../../../include/c++/6.3.0/bits" "basic_string.tcc"
	.loc	58 217 6                @ /usr/bin/../lib/gcc/arm-linux-gnueabihf/6.3.0/../../../../include/c++/6.3.0/bits/basic_string.tcc:217:6
	cmp	r7, #15
	.loc	58 215 12               @ /usr/bin/../lib/gcc/arm-linux-gnueabihf/6.3.0/../../../../include/c++/6.3.0/bits/basic_string.tcc:215:12
	str	r7, [r11, #-104]
	bls	.LBB3_25
.Ltmp157:
@ BB#23:                                @ %.noexc8.i
	@DEBUG_VALUE: _S_copy:__n <- %R7
	@DEBUG_VALUE: _M_construct<const char *>:__dnew <- %R7
	@DEBUG_VALUE: assign:__c2 <- %R6
	@DEBUG_VALUE: _S_copy:__s <- %R6
	@DEBUG_VALUE: _S_copy_chars:__k1 <- %R6
	@DEBUG_VALUE: _M_construct<const char *>:__beg <- %R6
	@DEBUG_VALUE: _M_construct_aux<const char *>:__beg <- %R6
	@DEBUG_VALUE: _M_construct<const char *>:__beg <- %R6
	@DEBUG_VALUE: length:__s <- %R6
	@DEBUG_VALUE: basic_string:__s <- %R6
	.loc	58 219 14               @ /usr/bin/../lib/gcc/arm-linux-gnueabihf/6.3.0/../../../../include/c++/6.3.0/bits/basic_string.tcc:219:14
.Ltmp36:
	add	r0, sp, #104
	sub	r1, r11, #104
.Ltmp158:
	@DEBUG_VALUE: _M_construct<const char *>:__dnew <- [%R1+0]
	mov	r2, #0
	bl	_ZNSt7__cxx1112basic_stringIcSt11char_traitsIcESaIcEE9_M_createERjj
.Ltmp159:
.Ltmp37:
.Ltmp160:
@ BB#24:                                @ %.noexc
	@DEBUG_VALUE: _S_copy:__n <- %R7
	@DEBUG_VALUE: assign:__c2 <- %R6
	@DEBUG_VALUE: _S_copy:__s <- %R6
	@DEBUG_VALUE: _S_copy_chars:__k1 <- %R6
	@DEBUG_VALUE: _M_construct<const char *>:__beg <- %R6
	@DEBUG_VALUE: _M_construct_aux<const char *>:__beg <- %R6
	@DEBUG_VALUE: _M_construct<const char *>:__beg <- %R6
	@DEBUG_VALUE: length:__s <- %R6
	@DEBUG_VALUE: basic_string:__s <- %R6
	@DEBUG_VALUE: _M_data:__p <- %R0
	.loc	58 220 18               @ /usr/bin/../lib/gcc/arm-linux-gnueabihf/6.3.0/../../../../include/c++/6.3.0/bits/basic_string.tcc:220:18
	ldr	r1, [r11, #-104]
.Ltmp161:
	@DEBUG_VALUE: _M_capacity:__capacity <- %R1
	@DEBUG_VALUE: _M_construct<const char *>:__dnew <- %R1
	.loc	30 128 26               @ /usr/bin/../lib/gcc/arm-linux-gnueabihf/6.3.0/../../../../include/c++/6.3.0/bits/basic_string.h:128:26
	str	r0, [sp, #104]
.Ltmp162:
	.loc	30 160 31               @ /usr/bin/../lib/gcc/arm-linux-gnueabihf/6.3.0/../../../../include/c++/6.3.0/bits/basic_string.h:160:31
	str	r1, [sp, #112]
	b	.LBB3_26
.Ltmp163:
.LBB3_25:                               @ %._crit_edge.i.i.i.i
	@DEBUG_VALUE: _S_copy:__n <- %R7
	@DEBUG_VALUE: _M_construct<const char *>:__dnew <- %R7
	@DEBUG_VALUE: assign:__c2 <- %R6
	@DEBUG_VALUE: _S_copy:__s <- %R6
	@DEBUG_VALUE: _S_copy_chars:__k1 <- %R6
	@DEBUG_VALUE: _M_construct<const char *>:__beg <- %R6
	@DEBUG_VALUE: _M_construct_aux<const char *>:__beg <- %R6
	@DEBUG_VALUE: _M_construct<const char *>:__beg <- %R6
	@DEBUG_VALUE: length:__s <- %R6
	@DEBUG_VALUE: basic_string:__s <- %R6
	.loc	30 136 28               @ /usr/bin/../lib/gcc/arm-linux-gnueabihf/6.3.0/../../../../include/c++/6.3.0/bits/basic_string.h:136:28
	mov	r0, r5
.Ltmp164:
.LBB3_26:
	@DEBUG_VALUE: _S_copy:__n <- %R7
	@DEBUG_VALUE: assign:__c2 <- %R6
	@DEBUG_VALUE: _S_copy:__s <- %R6
	@DEBUG_VALUE: _S_copy_chars:__k1 <- %R6
	@DEBUG_VALUE: _M_construct<const char *>:__beg <- %R6
	@DEBUG_VALUE: _M_construct_aux<const char *>:__beg <- %R6
	@DEBUG_VALUE: _M_construct<const char *>:__beg <- %R6
	@DEBUG_VALUE: length:__s <- %R6
	@DEBUG_VALUE: basic_string:__s <- %R6
	.loc	30 297 6                @ /usr/bin/../lib/gcc/arm-linux-gnueabihf/6.3.0/../../../../include/c++/6.3.0/bits/basic_string.h:297:6
	cmp	r7, #0
	beq	.LBB3_30
.Ltmp165:
@ BB#27:
	@DEBUG_VALUE: _S_copy:__n <- %R7
	@DEBUG_VALUE: assign:__c2 <- %R6
	@DEBUG_VALUE: _S_copy:__s <- %R6
	@DEBUG_VALUE: _S_copy_chars:__k1 <- %R6
	@DEBUG_VALUE: _M_construct<const char *>:__beg <- %R6
	@DEBUG_VALUE: _M_construct_aux<const char *>:__beg <- %R6
	@DEBUG_VALUE: _M_construct<const char *>:__beg <- %R6
	@DEBUG_VALUE: length:__s <- %R6
	@DEBUG_VALUE: basic_string:__s <- %R6
	cmp	r7, #1
	bne	.LBB3_29
.Ltmp166:
@ BB#28:
	@DEBUG_VALUE: _S_copy:__n <- %R7
	@DEBUG_VALUE: assign:__c2 <- %R6
	@DEBUG_VALUE: _S_copy:__s <- %R6
	@DEBUG_VALUE: _S_copy_chars:__k1 <- %R6
	@DEBUG_VALUE: _M_construct<const char *>:__beg <- %R6
	@DEBUG_VALUE: _M_construct_aux<const char *>:__beg <- %R6
	@DEBUG_VALUE: _M_construct<const char *>:__beg <- %R6
	@DEBUG_VALUE: length:__s <- %R6
	@DEBUG_VALUE: basic_string:__s <- %R6
	.loc	32 243 16               @ /usr/bin/../lib/gcc/arm-linux-gnueabihf/6.3.0/../../../../include/c++/6.3.0/bits/char_traits.h:243:16
	ldrb	r1, [r6]
.Ltmp167:
	@DEBUG_VALUE: _S_copy_chars:__p <- %R0
	.loc	32 243 14 is_stmt 0     @ /usr/bin/../lib/gcc/arm-linux-gnueabihf/6.3.0/../../../../include/c++/6.3.0/bits/char_traits.h:243:14
	strb	r1, [r0]
	b	.LBB3_30
.Ltmp168:
.LBB3_29:
	@DEBUG_VALUE: _S_copy:__n <- %R7
	@DEBUG_VALUE: assign:__c2 <- %R6
	@DEBUG_VALUE: _S_copy:__s <- %R6
	@DEBUG_VALUE: _S_copy_chars:__k1 <- %R6
	@DEBUG_VALUE: _M_construct<const char *>:__beg <- %R6
	@DEBUG_VALUE: _M_construct_aux<const char *>:__beg <- %R6
	@DEBUG_VALUE: _M_construct<const char *>:__beg <- %R6
	@DEBUG_VALUE: length:__s <- %R6
	@DEBUG_VALUE: basic_string:__s <- %R6
	.loc	32 290 33 is_stmt 1     @ /usr/bin/../lib/gcc/arm-linux-gnueabihf/6.3.0/../../../../include/c++/6.3.0/bits/char_traits.h:290:33
	mov	r1, r6
	mov	r2, r7
	bl	memcpy
.Ltmp169:
.LBB3_30:                               @ %._crit_edge.i.i.i.i38
	@DEBUG_VALUE: _S_copy:__n <- %R7
	@DEBUG_VALUE: assign:__c2 <- %R6
	@DEBUG_VALUE: _S_copy:__s <- %R6
	@DEBUG_VALUE: _S_copy_chars:__k1 <- %R6
	@DEBUG_VALUE: _M_construct<const char *>:__beg <- %R6
	@DEBUG_VALUE: _M_construct_aux<const char *>:__beg <- %R6
	@DEBUG_VALUE: _M_construct<const char *>:__beg <- %R6
	@DEBUG_VALUE: length:__s <- %R6
	@DEBUG_VALUE: basic_string:__s <- %R6
	.loc	58 232 16               @ /usr/bin/../lib/gcc/arm-linux-gnueabihf/6.3.0/../../../../include/c++/6.3.0/bits/basic_string.tcc:232:16
	ldr	r0, [r11, #-104]
.Ltmp170:
	@DEBUG_VALUE: _M_set_length:__n <- %R0
	@DEBUG_VALUE: _M_length:__length <- %R0
	@DEBUG_VALUE: _M_construct<const char *>:__dnew <- %R0
	.loc	32 243 14               @ /usr/bin/../lib/gcc/arm-linux-gnueabihf/6.3.0/../../../../include/c++/6.3.0/bits/char_traits.h:243:14
	mov	r2, #0
.Ltmp171:
	.loc	30 132 26               @ /usr/bin/../lib/gcc/arm-linux-gnueabihf/6.3.0/../../../../include/c++/6.3.0/bits/basic_string.h:132:26
	str	r0, [sp, #108]
	add	r3, sp, #80
.Ltmp172:
	@DEBUG_VALUE: _M_data:this <- %R3
	@DEBUG_VALUE: _M_length:this <- %R3
	@DEBUG_VALUE: _M_set_length:__n <- 3
	@DEBUG_VALUE: _M_set_length:this <- %R3
	@DEBUG_VALUE: _M_data:this <- %R3
	@DEBUG_VALUE: _M_construct<const char *>:__dnew <- 3
	@DEBUG_VALUE: _M_construct<const char *>:this <- %R3
	@DEBUG_VALUE: _M_construct_aux<const char *>:this <- %R3
	@DEBUG_VALUE: _M_construct<const char *>:this <- %R3
	@DEBUG_VALUE: _S_copy_chars:__p <- %R6
	@DEBUG_VALUE: _S_copy:__d <- %R6
	@DEBUG_VALUE: _M_local_data:this <- %R3
	.loc	30 136 28               @ /usr/bin/../lib/gcc/arm-linux-gnueabihf/6.3.0/../../../../include/c++/6.3.0/bits/basic_string.h:136:28
	ldr	r1, [sp, #104]
.Ltmp173:
	.loc	30 142 51               @ /usr/bin/../lib/gcc/arm-linux-gnueabihf/6.3.0/../../../../include/c++/6.3.0/bits/basic_string.h:142:51
	add	r6, r3, #8
.Ltmp174:
	.loc	32 243 14               @ /usr/bin/../lib/gcc/arm-linux-gnueabihf/6.3.0/../../../../include/c++/6.3.0/bits/char_traits.h:243:14
	strb	r2, [r1, r0]
.Ltmp175:
	.loc	32 290 33               @ /usr/bin/../lib/gcc/arm-linux-gnueabihf/6.3.0/../../../../include/c++/6.3.0/bits/char_traits.h:290:33
	mov	r0, #105
.Ltmp176:
	@DEBUG_VALUE: _S_copy:__n <- 3
	.loc	30 110 25               @ /usr/bin/../lib/gcc/arm-linux-gnueabihf/6.3.0/../../../../include/c++/6.3.0/bits/basic_string.h:110:25
	str	r6, [sp, #80]
.Ltmp177:
	.loc	32 290 33               @ /usr/bin/../lib/gcc/arm-linux-gnueabihf/6.3.0/../../../../include/c++/6.3.0/bits/char_traits.h:290:33
	strb	r0, [sp, #90]
	movw	r0, #30055
	strh	r0, [sp, #88]
	mov	r0, #3
.Ltmp178:
	@DEBUG_VALUE: _M_length:__length <- 3
	.loc	30 132 26               @ /usr/bin/../lib/gcc/arm-linux-gnueabihf/6.3.0/../../../../include/c++/6.3.0/bits/basic_string.h:132:26
	str	r0, [sp, #84]
.Ltmp179:
	.loc	32 243 14               @ /usr/bin/../lib/gcc/arm-linux-gnueabihf/6.3.0/../../../../include/c++/6.3.0/bits/char_traits.h:243:14
	strb	r2, [sp, #91]
.Ltmp180:
	.loc	1 112 7 discriminator 2 @ /root/Bela/projects/Autotune/render.cpp:112:7
.Ltmp39:
	movw	r0, :lower16:gGui
	add	r1, sp, #104
.Ltmp181:
	@DEBUG_VALUE: _M_data:this <- %R1
	@DEBUG_VALUE: _M_length:this <- %R1
	movt	r0, :upper16:gGui
	movw	r2, #5555
	bl	_ZN3Gui5setupENSt7__cxx1112basic_stringIcSt11char_traitsIcESaIcEEEjS5_
.Ltmp182:
.Ltmp40:
.Ltmp183:
@ BB#31:
	@DEBUG_VALUE: _S_copy:__n <- %R7
	.loc	30 136 28               @ /usr/bin/../lib/gcc/arm-linux-gnueabihf/6.3.0/../../../../include/c++/6.3.0/bits/basic_string.h:136:28
	ldr	r0, [sp, #80]
.Ltmp184:
	@DEBUG_VALUE: deallocate:__p <- %R0
	@DEBUG_VALUE: deallocate:__p <- %R0
	.loc	30 180 6                @ /usr/bin/../lib/gcc/arm-linux-gnueabihf/6.3.0/../../../../include/c++/6.3.0/bits/basic_string.h:180:6
	cmp	r0, r6
	beq	.LBB3_33
.Ltmp185:
@ BB#32:
	@DEBUG_VALUE: deallocate:__p <- %R0
	@DEBUG_VALUE: deallocate:__p <- %R0
	@DEBUG_VALUE: _S_copy:__n <- %R7
	.loc	6 110 9                 @ /usr/bin/../lib/gcc/arm-linux-gnueabihf/6.3.0/../../../../include/c++/6.3.0/ext/new_allocator.h:110:9
	bl	_ZdlPv
.Ltmp186:
.LBB3_33:                               @ %_ZNSt7__cxx1112basic_stringIcSt11char_traitsIcESaIcEED2Ev.exit43
	@DEBUG_VALUE: _S_copy:__n <- %R7
	.loc	30 136 28               @ /usr/bin/../lib/gcc/arm-linux-gnueabihf/6.3.0/../../../../include/c++/6.3.0/bits/basic_string.h:136:28
	ldr	r0, [sp, #104]
.Ltmp187:
	@DEBUG_VALUE: deallocate:__p <- %R0
	@DEBUG_VALUE: deallocate:__p <- %R0
	.loc	30 180 6                @ /usr/bin/../lib/gcc/arm-linux-gnueabihf/6.3.0/../../../../include/c++/6.3.0/bits/basic_string.h:180:6
	cmp	r0, r5
	beq	.LBB3_35
.Ltmp188:
@ BB#34:
	@DEBUG_VALUE: deallocate:__p <- %R0
	@DEBUG_VALUE: deallocate:__p <- %R0
	@DEBUG_VALUE: _S_copy:__n <- %R7
	.loc	6 110 9                 @ /usr/bin/../lib/gcc/arm-linux-gnueabihf/6.3.0/../../../../include/c++/6.3.0/ext/new_allocator.h:110:9
	bl	_ZdlPv
.Ltmp189:
.LBB3_35:                               @ %_ZNSt7__cxx1112basic_stringIcSt11char_traitsIcESaIcEED2Ev.exit44
	@DEBUG_VALUE: _S_copy:__n <- %R7
	add	r0, sp, #56
.Ltmp190:
	@DEBUG_VALUE: _M_construct<const char *>:this <- %R0
	@DEBUG_VALUE: _M_construct_aux<const char *>:this <- %R0
	@DEBUG_VALUE: _M_construct<const char *>:this <- %R0
	@DEBUG_VALUE: _M_local_data:this <- %R0
	.loc	58 215 12               @ /usr/bin/../lib/gcc/arm-linux-gnueabihf/6.3.0/../../../../include/c++/6.3.0/bits/basic_string.tcc:215:12
	mov	r1, #21
.Ltmp191:
	@DEBUG_VALUE: _M_construct<const char *>:__dnew <- 21
	.loc	30 142 51               @ /usr/bin/../lib/gcc/arm-linux-gnueabihf/6.3.0/../../../../include/c++/6.3.0/bits/basic_string.h:142:51
	add	r6, r0, #8
.Ltmp192:
	.loc	30 110 25               @ /usr/bin/../lib/gcc/arm-linux-gnueabihf/6.3.0/../../../../include/c++/6.3.0/bits/basic_string.h:110:25
	str	r6, [sp, #56]
.Ltmp193:
	.loc	58 215 12               @ /usr/bin/../lib/gcc/arm-linux-gnueabihf/6.3.0/../../../../include/c++/6.3.0/bits/basic_string.tcc:215:12
	str	r1, [r11, #-96]
.Ltmp194:
	.loc	58 219 14               @ /usr/bin/../lib/gcc/arm-linux-gnueabihf/6.3.0/../../../../include/c++/6.3.0/bits/basic_string.tcc:219:14
.Ltmp42:
	sub	r1, r11, #96
.Ltmp195:
	@DEBUG_VALUE: _M_construct<const char *>:__dnew <- [%R1+0]
	mov	r2, #0
	mov	r5, #0
	bl	_ZNSt7__cxx1112basic_stringIcSt11char_traitsIcESaIcEE9_M_createERjj
.Ltmp196:
.Ltmp43:
.Ltmp197:
@ BB#36:                                @ %.noexc50
	@DEBUG_VALUE: _S_copy:__n <- %R7
	.loc	32 290 33               @ /usr/bin/../lib/gcc/arm-linux-gnueabihf/6.3.0/../../../../include/c++/6.3.0/bits/char_traits.h:290:33
	movw	r2, :lower16:.L.str.16
.Ltmp198:
	.loc	58 220 18               @ /usr/bin/../lib/gcc/arm-linux-gnueabihf/6.3.0/../../../../include/c++/6.3.0/bits/basic_string.tcc:220:18
	ldr	r1, [r11, #-96]
.Ltmp199:
	@DEBUG_VALUE: _M_capacity:__capacity <- %R1
	@DEBUG_VALUE: _M_set_length:__n <- %R1
	@DEBUG_VALUE: _M_length:__length <- %R1
	@DEBUG_VALUE: _M_construct<const char *>:__dnew <- %R1
	.loc	32 290 33               @ /usr/bin/../lib/gcc/arm-linux-gnueabihf/6.3.0/../../../../include/c++/6.3.0/bits/char_traits.h:290:33
	movt	r2, :upper16:.L.str.16
	vld1.64	{d16, d17}, [r2]
	add	r2, r2, #13
.Ltmp200:
	.loc	30 128 26               @ /usr/bin/../lib/gcc/arm-linux-gnueabihf/6.3.0/../../../../include/c++/6.3.0/bits/basic_string.h:128:26
	str	r0, [sp, #56]
.Ltmp201:
	@DEBUG_VALUE: _M_data:__p <- %R0
	.loc	32 290 33               @ /usr/bin/../lib/gcc/arm-linux-gnueabihf/6.3.0/../../../../include/c++/6.3.0/bits/char_traits.h:290:33
	vld1.8	{d18}, [r2]
	add	r2, r0, #13
.Ltmp202:
	.loc	30 160 31               @ /usr/bin/../lib/gcc/arm-linux-gnueabihf/6.3.0/../../../../include/c++/6.3.0/bits/basic_string.h:160:31
	str	r1, [sp, #64]
.Ltmp203:
	@DEBUG_VALUE: _S_copy:__d <- %R0
	@DEBUG_VALUE: _S_copy:__n <- 21
	.loc	32 290 33               @ /usr/bin/../lib/gcc/arm-linux-gnueabihf/6.3.0/../../../../include/c++/6.3.0/bits/char_traits.h:290:33
	vst1.8	{d18}, [r2]
	vst1.8	{d16, d17}, [r0]
.Ltmp204:
	.loc	30 132 26               @ /usr/bin/../lib/gcc/arm-linux-gnueabihf/6.3.0/../../../../include/c++/6.3.0/bits/basic_string.h:132:26
	str	r1, [sp, #60]
.Ltmp205:
	.loc	30 136 28               @ /usr/bin/../lib/gcc/arm-linux-gnueabihf/6.3.0/../../../../include/c++/6.3.0/bits/basic_string.h:136:28
	ldr	r0, [sp, #56]
.Ltmp206:
	.loc	32 243 14               @ /usr/bin/../lib/gcc/arm-linux-gnueabihf/6.3.0/../../../../include/c++/6.3.0/bits/char_traits.h:243:14
	strb	r5, [r0, r1]
.Ltmp207:
	.loc	1 113 17 discriminator 1 @ /root/Bela/projects/Autotune/render.cpp:113:17
.Ltmp45:
	add	r5, r9, #40
	movw	r1, :lower16:gGui
.Ltmp208:
	add	r2, sp, #56
.Ltmp209:
	@DEBUG_VALUE: _M_data:this <- %R2
	@DEBUG_VALUE: _M_length:this <- %R2
	@DEBUG_VALUE: _M_set_length:this <- %R2
	@DEBUG_VALUE: _M_data:this <- %R2
	@DEBUG_VALUE: _M_capacity:this <- %R2
	@DEBUG_VALUE: _M_data:this <- %R2
	movt	r1, :upper16:gGui
	mov	r0, r5
	bl	_ZN13GuiController5setupEP3GuiNSt7__cxx1112basic_stringIcSt11char_traitsIcESaIcEEE
.Ltmp210:
.Ltmp46:
.Ltmp211:
	@DEBUG_VALUE: _S_copy:__s <- %R2
@ BB#37:
	@DEBUG_VALUE: _S_copy:__s <- %R2
	@DEBUG_VALUE: _S_copy:__n <- %R7
	.loc	30 136 28               @ /usr/bin/../lib/gcc/arm-linux-gnueabihf/6.3.0/../../../../include/c++/6.3.0/bits/basic_string.h:136:28
	ldr	r0, [sp, #56]
.Ltmp212:
	@DEBUG_VALUE: deallocate:__p <- %R0
	@DEBUG_VALUE: deallocate:__p <- %R0
	.loc	30 180 6                @ /usr/bin/../lib/gcc/arm-linux-gnueabihf/6.3.0/../../../../include/c++/6.3.0/bits/basic_string.h:180:6
	cmp	r0, r6
	beq	.LBB3_39
.Ltmp213:
@ BB#38:
	@DEBUG_VALUE: deallocate:__p <- %R0
	@DEBUG_VALUE: deallocate:__p <- %R0
	@DEBUG_VALUE: _S_copy:__s <- %R2
	@DEBUG_VALUE: _S_copy:__n <- %R7
	.loc	6 110 9                 @ /usr/bin/../lib/gcc/arm-linux-gnueabihf/6.3.0/../../../../include/c++/6.3.0/ext/new_allocator.h:110:9
	bl	_ZdlPv
.Ltmp214:
.LBB3_39:                               @ %_ZNSt7__cxx1112basic_stringIcSt11char_traitsIcESaIcEED2Ev.exit52
	@DEBUG_VALUE: _S_copy:__n <- %R7
	add	r0, sp, #32
.Ltmp215:
	@DEBUG_VALUE: _M_construct<const char *>:this <- %R0
	@DEBUG_VALUE: _M_construct_aux<const char *>:this <- %R0
	@DEBUG_VALUE: _M_construct<const char *>:this <- %R0
	@DEBUG_VALUE: _M_local_data:this <- %R0
	.loc	58 215 12               @ /usr/bin/../lib/gcc/arm-linux-gnueabihf/6.3.0/../../../../include/c++/6.3.0/bits/basic_string.tcc:215:12
	mov	r1, #19
.Ltmp216:
	@DEBUG_VALUE: _M_construct<const char *>:__dnew <- 19
	.loc	30 142 51               @ /usr/bin/../lib/gcc/arm-linux-gnueabihf/6.3.0/../../../../include/c++/6.3.0/bits/basic_string.h:142:51
	add	r6, r0, #8
.Ltmp217:
	.loc	30 110 25               @ /usr/bin/../lib/gcc/arm-linux-gnueabihf/6.3.0/../../../../include/c++/6.3.0/bits/basic_string.h:110:25
	str	r6, [sp, #32]
.Ltmp218:
	.loc	58 215 12               @ /usr/bin/../lib/gcc/arm-linux-gnueabihf/6.3.0/../../../../include/c++/6.3.0/bits/basic_string.tcc:215:12
	str	r1, [r11, #-92]
.Ltmp219:
	.loc	58 219 14               @ /usr/bin/../lib/gcc/arm-linux-gnueabihf/6.3.0/../../../../include/c++/6.3.0/bits/basic_string.tcc:219:14
.Ltmp48:
	sub	r1, r11, #92
.Ltmp220:
	@DEBUG_VALUE: _M_construct<const char *>:__dnew <- [%R1+0]
	mov	r2, #0
	mov	r7, #0
.Ltmp221:
	bl	_ZNSt7__cxx1112basic_stringIcSt11char_traitsIcESaIcEE9_M_createERjj
.Ltmp222:
.Ltmp49:
.Ltmp223:
@ BB#40:                                @ %.noexc57
	.loc	32 290 33               @ /usr/bin/../lib/gcc/arm-linux-gnueabihf/6.3.0/../../../../include/c++/6.3.0/bits/char_traits.h:290:33
	movw	r1, :lower16:.L.str.17
.Ltmp224:
	.loc	58 220 18               @ /usr/bin/../lib/gcc/arm-linux-gnueabihf/6.3.0/../../../../include/c++/6.3.0/bits/basic_string.tcc:220:18
	ldr	r2, [r11, #-92]
.Ltmp225:
	@DEBUG_VALUE: _M_capacity:__capacity <- %R2
	@DEBUG_VALUE: _M_set_length:__n <- %R2
	@DEBUG_VALUE: _M_length:__length <- %R2
	@DEBUG_VALUE: _M_construct<const char *>:__dnew <- %R2
	.loc	32 290 33               @ /usr/bin/../lib/gcc/arm-linux-gnueabihf/6.3.0/../../../../include/c++/6.3.0/bits/char_traits.h:290:33
	movt	r1, :upper16:.L.str.17
	vld1.64	{d16, d17}, [r1]
	mov	r1, #116
.Ltmp226:
	.loc	1 116 17 discriminator 1 @ /root/Bela/projects/Autotune/render.cpp:116:17
	vmov.i32	d2, #0x0
.Ltmp227:
	.loc	30 128 26               @ /usr/bin/../lib/gcc/arm-linux-gnueabihf/6.3.0/../../../../include/c++/6.3.0/bits/basic_string.h:128:26
	str	r0, [sp, #32]
.Ltmp228:
	@DEBUG_VALUE: _M_data:__p <- %R0
	.loc	30 160 31               @ /usr/bin/../lib/gcc/arm-linux-gnueabihf/6.3.0/../../../../include/c++/6.3.0/bits/basic_string.h:160:31
	str	r2, [sp, #40]
.Ltmp229:
	@DEBUG_VALUE: _S_copy:__d <- %R0
	@DEBUG_VALUE: _S_copy:__n <- 19
	.loc	32 290 33               @ /usr/bin/../lib/gcc/arm-linux-gnueabihf/6.3.0/../../../../include/c++/6.3.0/bits/char_traits.h:290:33
	strb	r1, [r0, #18]
	movw	r1, #26217
	vst1.8	{d16, d17}, [r0]!
.Ltmp230:
	strh	r1, [r0]
	add	r1, sp, #32
.Ltmp231:
	@DEBUG_VALUE: _M_data:this <- %R1
	@DEBUG_VALUE: _M_length:this <- %R1
	@DEBUG_VALUE: _M_set_length:this <- %R1
	@DEBUG_VALUE: _M_data:this <- %R1
	@DEBUG_VALUE: _M_capacity:this <- %R1
	@DEBUG_VALUE: _M_data:this <- %R1
	.loc	30 132 26               @ /usr/bin/../lib/gcc/arm-linux-gnueabihf/6.3.0/../../../../include/c++/6.3.0/bits/basic_string.h:132:26
	str	r2, [sp, #36]
.Ltmp232:
	.loc	30 136 28               @ /usr/bin/../lib/gcc/arm-linux-gnueabihf/6.3.0/../../../../include/c++/6.3.0/bits/basic_string.h:136:28
	ldr	r0, [sp, #32]
.Ltmp233:
	.loc	32 243 14               @ /usr/bin/../lib/gcc/arm-linux-gnueabihf/6.3.0/../../../../include/c++/6.3.0/bits/char_traits.h:243:14
	strb	r7, [r0, r2]
.Ltmp234:
	.loc	1 116 17 discriminator 1 @ /root/Bela/projects/Autotune/render.cpp:116:17
.Ltmp51:
	vmov.i32	d0, #0x0
	mov	r0, r5
	vmov.f32	d1, #1.000000e+00
	vmov.f32	s1, s4
	vmov.f32	s3, s4
	bl	_ZN13GuiController9addSliderENSt7__cxx1112basic_stringIcSt11char_traitsIcESaIcEEEffff
.Ltmp235:
.Ltmp52:
.Ltmp236:
	@DEBUG_VALUE: _S_copy:__s <- %R1
@ BB#41:
	@DEBUG_VALUE: _S_copy:__s <- %R1
	.loc	30 136 28               @ /usr/bin/../lib/gcc/arm-linux-gnueabihf/6.3.0/../../../../include/c++/6.3.0/bits/basic_string.h:136:28
	ldr	r0, [sp, #32]
.Ltmp237:
	@DEBUG_VALUE: deallocate:__p <- %R0
	@DEBUG_VALUE: deallocate:__p <- %R0
	.loc	30 180 6                @ /usr/bin/../lib/gcc/arm-linux-gnueabihf/6.3.0/../../../../include/c++/6.3.0/bits/basic_string.h:180:6
	cmp	r0, r6
	beq	.LBB3_43
.Ltmp238:
@ BB#42:
	@DEBUG_VALUE: deallocate:__p <- %R0
	@DEBUG_VALUE: deallocate:__p <- %R0
	@DEBUG_VALUE: _S_copy:__s <- %R1
	.loc	6 110 9                 @ /usr/bin/../lib/gcc/arm-linux-gnueabihf/6.3.0/../../../../include/c++/6.3.0/ext/new_allocator.h:110:9
	bl	_ZdlPv
.Ltmp239:
.LBB3_43:                               @ %_ZNSt7__cxx1112basic_stringIcSt11char_traitsIcESaIcEED2Ev.exit45
	add	r0, sp, #8
.Ltmp240:
	@DEBUG_VALUE: _M_construct<const char *>:this <- %R0
	@DEBUG_VALUE: _M_construct_aux<const char *>:this <- %R0
	@DEBUG_VALUE: _M_construct<const char *>:this <- %R0
	@DEBUG_VALUE: _M_local_data:this <- %R0
	.loc	58 215 12               @ /usr/bin/../lib/gcc/arm-linux-gnueabihf/6.3.0/../../../../include/c++/6.3.0/bits/basic_string.tcc:215:12
	mov	r1, #18
.Ltmp241:
	@DEBUG_VALUE: _M_construct<const char *>:__dnew <- 18
	.loc	30 142 51               @ /usr/bin/../lib/gcc/arm-linux-gnueabihf/6.3.0/../../../../include/c++/6.3.0/bits/basic_string.h:142:51
	add	r6, r0, #8
.Ltmp242:
	.loc	30 110 25               @ /usr/bin/../lib/gcc/arm-linux-gnueabihf/6.3.0/../../../../include/c++/6.3.0/bits/basic_string.h:110:25
	str	r6, [sp, #8]
.Ltmp243:
	.loc	58 215 12               @ /usr/bin/../lib/gcc/arm-linux-gnueabihf/6.3.0/../../../../include/c++/6.3.0/bits/basic_string.tcc:215:12
	str	r1, [r11, #-100]
.Ltmp244:
	.loc	58 219 14               @ /usr/bin/../lib/gcc/arm-linux-gnueabihf/6.3.0/../../../../include/c++/6.3.0/bits/basic_string.tcc:219:14
.Ltmp54:
	sub	r1, r11, #100
.Ltmp245:
	@DEBUG_VALUE: _M_construct<const char *>:__dnew <- [%R1+0]
	mov	r2, #0
	mov	r7, #0
	bl	_ZNSt7__cxx1112basic_stringIcSt11char_traitsIcESaIcEE9_M_createERjj
.Ltmp246:
.Ltmp55:
.Ltmp247:
@ BB#44:                                @ %.noexc35
	.loc	32 290 33               @ /usr/bin/../lib/gcc/arm-linux-gnueabihf/6.3.0/../../../../include/c++/6.3.0/bits/char_traits.h:290:33
	movw	r1, :lower16:.L.str.18
.Ltmp248:
	.loc	58 220 18               @ /usr/bin/../lib/gcc/arm-linux-gnueabihf/6.3.0/../../../../include/c++/6.3.0/bits/basic_string.tcc:220:18
	ldr	r2, [r11, #-100]
.Ltmp249:
	@DEBUG_VALUE: _M_capacity:__capacity <- %R2
	@DEBUG_VALUE: _M_set_length:__n <- %R2
	@DEBUG_VALUE: _M_length:__length <- %R2
	@DEBUG_VALUE: _M_construct<const char *>:__dnew <- %R2
	.loc	32 290 33               @ /usr/bin/../lib/gcc/arm-linux-gnueabihf/6.3.0/../../../../include/c++/6.3.0/bits/char_traits.h:290:33
	movt	r1, :upper16:.L.str.18
	vld1.64	{d16, d17}, [r1]
	movw	r1, #29798
.Ltmp250:
	.loc	1 117 17 discriminator 1 @ /root/Bela/projects/Autotune/render.cpp:117:17
	vmov.i32	d2, #0x0
.Ltmp251:
	.loc	30 128 26               @ /usr/bin/../lib/gcc/arm-linux-gnueabihf/6.3.0/../../../../include/c++/6.3.0/bits/basic_string.h:128:26
	str	r0, [sp, #8]
.Ltmp252:
	@DEBUG_VALUE: _M_data:__p <- %R0
	.loc	30 160 31               @ /usr/bin/../lib/gcc/arm-linux-gnueabihf/6.3.0/../../../../include/c++/6.3.0/bits/basic_string.h:160:31
	str	r2, [sp, #16]
.Ltmp253:
	@DEBUG_VALUE: _S_copy:__d <- %R0
	@DEBUG_VALUE: _S_copy:__n <- 18
	.loc	32 290 33               @ /usr/bin/../lib/gcc/arm-linux-gnueabihf/6.3.0/../../../../include/c++/6.3.0/bits/char_traits.h:290:33
	vst1.8	{d16, d17}, [r0]!
.Ltmp254:
	strh	r1, [r0]
	add	r1, sp, #8
.Ltmp255:
	@DEBUG_VALUE: _M_data:this <- %R1
	@DEBUG_VALUE: _M_length:this <- %R1
	@DEBUG_VALUE: _M_set_length:this <- %R1
	@DEBUG_VALUE: _M_data:this <- %R1
	@DEBUG_VALUE: _M_capacity:this <- %R1
	@DEBUG_VALUE: _M_data:this <- %R1
	.loc	30 132 26               @ /usr/bin/../lib/gcc/arm-linux-gnueabihf/6.3.0/../../../../include/c++/6.3.0/bits/basic_string.h:132:26
	str	r2, [sp, #12]
.Ltmp256:
	.loc	30 136 28               @ /usr/bin/../lib/gcc/arm-linux-gnueabihf/6.3.0/../../../../include/c++/6.3.0/bits/basic_string.h:136:28
	ldr	r0, [sp, #8]
.Ltmp257:
	.loc	1 117 17 discriminator 1 @ /root/Bela/projects/Autotune/render.cpp:117:17
	vldr	s2, .LCPI3_2
.Ltmp258:
	.loc	32 243 14               @ /usr/bin/../lib/gcc/arm-linux-gnueabihf/6.3.0/../../../../include/c++/6.3.0/bits/char_traits.h:243:14
	strb	r7, [r0, r2]
.Ltmp259:
	.loc	1 117 17 discriminator 1 @ /root/Bela/projects/Autotune/render.cpp:117:17
.Ltmp57:
	vmov.i32	d0, #0x0
	mov	r0, r5
	vmov.f32	s1, s4
	vmov.f32	s3, s4
	bl	_ZN13GuiController9addSliderENSt7__cxx1112basic_stringIcSt11char_traitsIcESaIcEEEffff
.Ltmp260:
.Ltmp58:
.Ltmp261:
	@DEBUG_VALUE: _S_copy:__s <- %R1
@ BB#45:
	@DEBUG_VALUE: _S_copy:__s <- %R1
	.loc	30 136 28               @ /usr/bin/../lib/gcc/arm-linux-gnueabihf/6.3.0/../../../../include/c++/6.3.0/bits/basic_string.h:136:28
	ldr	r0, [sp, #8]
.Ltmp262:
	@DEBUG_VALUE: deallocate:__p <- %R0
	@DEBUG_VALUE: deallocate:__p <- %R0
	.loc	30 180 6                @ /usr/bin/../lib/gcc/arm-linux-gnueabihf/6.3.0/../../../../include/c++/6.3.0/bits/basic_string.h:180:6
	cmp	r0, r6
	beq	.LBB3_47
.Ltmp263:
@ BB#46:
	@DEBUG_VALUE: deallocate:__p <- %R0
	@DEBUG_VALUE: deallocate:__p <- %R0
	@DEBUG_VALUE: _S_copy:__s <- %R1
	.loc	6 110 9                 @ /usr/bin/../lib/gcc/arm-linux-gnueabihf/6.3.0/../../../../include/c++/6.3.0/ext/new_allocator.h:110:9
	bl	_ZdlPv
.Ltmp264:
.LBB3_47:                               @ %_ZNSt7__cxx1112basic_stringIcSt11char_traitsIcESaIcEED2Ev.exit30
	.loc	1 121 13                @ /root/Bela/projects/Autotune/render.cpp:121:13
	movw	r0, :lower16:_Z22process_fft_backgroundPv
	movw	r2, :lower16:.L.str.19
	movt	r0, :upper16:_Z22process_fft_backgroundPv
	movt	r2, :upper16:.L.str.19
	mov	r1, #50
	mov	r3, #0
	bl	Bela_createAuxiliaryTask
	.loc	1 121 11 is_stmt 0      @ /root/Bela/projects/Autotune/render.cpp:121:11
	str	r0, [r4, #44]
	mov	r0, #1
	.loc	1 123 24 is_stmt 1      @ /root/Bela/projects/Autotune/render.cpp:123:24
	vldr	s0, [r8, #32]
	.loc	1 123 15 is_stmt 0      @ /root/Bela/projects/Autotune/render.cpp:123:15
	vcvt.f64.f32	d16, s0
	.loc	1 123 13                @ /root/Bela/projects/Autotune/render.cpp:123:13
	vstr	d16, [r4, #56]
.LBB3_48:
	.loc	1 128 1 is_stmt 1 discriminator 8 @ /root/Bela/projects/Autotune/render.cpp:128:1
	sub	sp, r11, #88
	vpop	{d8, d9, d10, d11, d12, d13, d14, d15}
	pop	{r4, r5, r6, r7, r8, r9, r11, pc}
.LBB3_49:
.Ltmp265:
	@DEBUG_VALUE: _S_copy:__n <- %R7
	@DEBUG_VALUE: assign:__c2 <- %R6
	@DEBUG_VALUE: _S_copy:__s <- %R6
	@DEBUG_VALUE: _S_copy_chars:__k1 <- %R6
	@DEBUG_VALUE: _M_construct<const char *>:__beg <- %R6
	@DEBUG_VALUE: _M_construct_aux<const char *>:__beg <- %R6
	@DEBUG_VALUE: _M_construct<const char *>:__beg <- %R6
	@DEBUG_VALUE: length:__s <- %R6
	@DEBUG_VALUE: basic_string:__s <- %R6
.Ltmp38:
	b	.LBB3_59
.Ltmp266:
.LBB3_50:
	@DEBUG_VALUE: _S_copy:__s <- %R1
.Ltmp59:
	mov	r4, r0
.Ltmp267:
	.loc	30 136 28               @ /usr/bin/../lib/gcc/arm-linux-gnueabihf/6.3.0/../../../../include/c++/6.3.0/bits/basic_string.h:136:28
	ldr	r0, [sp, #8]
	b	.LBB3_55
.Ltmp268:
.LBB3_51:
.Ltmp56:
	b	.LBB3_59
.LBB3_52:
.Ltmp269:
	@DEBUG_VALUE: _S_copy:__s <- %R1
.Ltmp53:
	mov	r4, r0
.Ltmp270:
	.loc	30 136 28 is_stmt 0     @ /usr/bin/../lib/gcc/arm-linux-gnueabihf/6.3.0/../../../../include/c++/6.3.0/bits/basic_string.h:136:28
	ldr	r0, [sp, #32]
	b	.LBB3_55
.Ltmp271:
.LBB3_53:
.Ltmp50:
	b	.LBB3_59
.LBB3_54:
.Ltmp272:
	@DEBUG_VALUE: _S_copy:__s <- %R2
	@DEBUG_VALUE: _S_copy:__n <- %R7
.Ltmp47:
	mov	r4, r0
.Ltmp273:
	.loc	30 136 28               @ /usr/bin/../lib/gcc/arm-linux-gnueabihf/6.3.0/../../../../include/c++/6.3.0/bits/basic_string.h:136:28
	ldr	r0, [sp, #56]
.Ltmp274:
.LBB3_55:
	@DEBUG_VALUE: deallocate:__p <- %R0
	@DEBUG_VALUE: deallocate:__p <- %R0
	.loc	30 180 6 is_stmt 1      @ /usr/bin/../lib/gcc/arm-linux-gnueabihf/6.3.0/../../../../include/c++/6.3.0/bits/basic_string.h:180:6
	cmp	r0, r6
	beq	.LBB3_60
	b	.LBB3_65
.Ltmp275:
	.p2align	3
@ BB#56:
.LCPI3_4:
	.long	1704825981              @ double 0.0061419211213876697
	.long	1064904773
	.p2align	4
@ BB#57:
.LCPI3_5:
	.long	0                       @ 0x0
	.long	1                       @ 0x1
	.long	2                       @ 0x2
	.long	3                       @ 0x3
.LBB3_58:
.Ltmp276:
	@DEBUG_VALUE: _S_copy:__n <- %R7
.Ltmp44:
.Ltmp277:
.LBB3_59:                               @ %_ZNSt7__cxx1112basic_stringIcSt11char_traitsIcESaIcEED2Ev.exit28
	mov	r4, r0
.LBB3_60:                               @ %_ZNSt7__cxx1112basic_stringIcSt11char_traitsIcESaIcEED2Ev.exit28
	mov	r0, r4
	mov	lr, pc
	b	_Unwind_Resume
@ BB#61:
.LBB3_62:
.Ltmp278:
	@DEBUG_VALUE: _S_copy:__n <- %R7
.Ltmp41:
	mov	r4, r0
.Ltmp279:
	.loc	30 136 28               @ /usr/bin/../lib/gcc/arm-linux-gnueabihf/6.3.0/../../../../include/c++/6.3.0/bits/basic_string.h:136:28
	ldr	r0, [sp, #80]
.Ltmp280:
	@DEBUG_VALUE: deallocate:__p <- %R0
	@DEBUG_VALUE: deallocate:__p <- %R0
	.loc	30 180 6                @ /usr/bin/../lib/gcc/arm-linux-gnueabihf/6.3.0/../../../../include/c++/6.3.0/bits/basic_string.h:180:6
	cmp	r0, r6
	beq	.LBB3_64
.Ltmp281:
@ BB#63:
	@DEBUG_VALUE: deallocate:__p <- %R0
	@DEBUG_VALUE: deallocate:__p <- %R0
	@DEBUG_VALUE: _S_copy:__n <- %R7
	.loc	6 110 9                 @ /usr/bin/../lib/gcc/arm-linux-gnueabihf/6.3.0/../../../../include/c++/6.3.0/ext/new_allocator.h:110:9
	bl	_ZdlPv
.Ltmp282:
.LBB3_64:                               @ %_ZNSt7__cxx1112basic_stringIcSt11char_traitsIcESaIcEED2Ev.exit29
	@DEBUG_VALUE: _S_copy:__n <- %R7
	.loc	30 136 28               @ /usr/bin/../lib/gcc/arm-linux-gnueabihf/6.3.0/../../../../include/c++/6.3.0/bits/basic_string.h:136:28
	ldr	r0, [sp, #104]
.Ltmp283:
	@DEBUG_VALUE: deallocate:__p <- %R0
	@DEBUG_VALUE: deallocate:__p <- %R0
	.loc	30 180 6                @ /usr/bin/../lib/gcc/arm-linux-gnueabihf/6.3.0/../../../../include/c++/6.3.0/bits/basic_string.h:180:6
	cmp	r0, r5
	beq	.LBB3_60
.Ltmp284:
.LBB3_65:
	.loc	6 110 9                 @ /usr/bin/../lib/gcc/arm-linux-gnueabihf/6.3.0/../../../../include/c++/6.3.0/ext/new_allocator.h:110:9
	bl	_ZdlPv
	mov	r0, r4
	mov	lr, pc
	b	_Unwind_Resume
.Ltmp285:
	.p2align	3
@ BB#66:
.LCPI3_1:
	.long	1704825981              @ double 0.0061419211213876697
	.long	1064904773
.LCPI3_2:
	.long	1028443341              @ float 0.0500000007
.Lfunc_end3:
	.size	setup, .Lfunc_end3-setup
	.cfi_endproc
	.globl	__gxx_personality_v0
	.personality __gxx_personality_v0
	.handlerdata
	.p2align	2
GCC_except_table3:
.Lexception1:
	.byte	255                     @ @LPStart Encoding = omit
	.byte	0                       @ @TType Encoding = absptr
	.asciz	"\222\201\200"          @ @TType base offset
	.byte	3                       @ Call site Encoding = udata4
	.ascii	"\217\001"              @ Call site table length
	.long	.Lfunc_begin3-.Lfunc_begin3 @ >> Call Site 1 <<
	.long	.Ltmp36-.Lfunc_begin3   @   Call between .Lfunc_begin3 and .Ltmp36
	.long	0                       @     has no landing pad
	.byte	0                       @   On action: cleanup
	.long	.Ltmp36-.Lfunc_begin3   @ >> Call Site 2 <<
	.long	.Ltmp37-.Ltmp36         @   Call between .Ltmp36 and .Ltmp37
	.long	.Ltmp38-.Lfunc_begin3   @     jumps to .Ltmp38
	.byte	0                       @   On action: cleanup
	.long	.Ltmp37-.Lfunc_begin3   @ >> Call Site 3 <<
	.long	.Ltmp39-.Ltmp37         @   Call between .Ltmp37 and .Ltmp39
	.long	0                       @     has no landing pad
	.byte	0                       @   On action: cleanup
	.long	.Ltmp39-.Lfunc_begin3   @ >> Call Site 4 <<
	.long	.Ltmp40-.Ltmp39         @   Call between .Ltmp39 and .Ltmp40
	.long	.Ltmp41-.Lfunc_begin3   @     jumps to .Ltmp41
	.byte	0                       @   On action: cleanup
	.long	.Ltmp42-.Lfunc_begin3   @ >> Call Site 5 <<
	.long	.Ltmp43-.Ltmp42         @   Call between .Ltmp42 and .Ltmp43
	.long	.Ltmp44-.Lfunc_begin3   @     jumps to .Ltmp44
	.byte	0                       @   On action: cleanup
	.long	.Ltmp45-.Lfunc_begin3   @ >> Call Site 6 <<
	.long	.Ltmp46-.Ltmp45         @   Call between .Ltmp45 and .Ltmp46
	.long	.Ltmp47-.Lfunc_begin3   @     jumps to .Ltmp47
	.byte	0                       @   On action: cleanup
	.long	.Ltmp48-.Lfunc_begin3   @ >> Call Site 7 <<
	.long	.Ltmp49-.Ltmp48         @   Call between .Ltmp48 and .Ltmp49
	.long	.Ltmp50-.Lfunc_begin3   @     jumps to .Ltmp50
	.byte	0                       @   On action: cleanup
	.long	.Ltmp51-.Lfunc_begin3   @ >> Call Site 8 <<
	.long	.Ltmp52-.Ltmp51         @   Call between .Ltmp51 and .Ltmp52
	.long	.Ltmp53-.Lfunc_begin3   @     jumps to .Ltmp53
	.byte	0                       @   On action: cleanup
	.long	.Ltmp54-.Lfunc_begin3   @ >> Call Site 9 <<
	.long	.Ltmp55-.Ltmp54         @   Call between .Ltmp54 and .Ltmp55
	.long	.Ltmp56-.Lfunc_begin3   @     jumps to .Ltmp56
	.byte	0                       @   On action: cleanup
	.long	.Ltmp57-.Lfunc_begin3   @ >> Call Site 10 <<
	.long	.Ltmp58-.Ltmp57         @   Call between .Ltmp57 and .Ltmp58
	.long	.Ltmp59-.Lfunc_begin3   @     jumps to .Ltmp59
	.byte	0                       @   On action: cleanup
	.long	.Ltmp58-.Lfunc_begin3   @ >> Call Site 11 <<
	.long	.Lfunc_end3-.Ltmp58     @   Call between .Ltmp58 and .Lfunc_end3
	.long	0                       @     has no landing pad
	.byte	0                       @   On action: cleanup
	.p2align	2
	.fnend

	.globl	_Z22process_fft_backgroundPv
	.p2align	2
	.type	_Z22process_fft_backgroundPv,%function
_Z22process_fft_backgroundPv:           @ @_Z22process_fft_backgroundPv
.Lfunc_begin4:
	.loc	1 341 0                 @ /root/Bela/projects/Autotune/render.cpp:341:0
	.fnstart
	.cfi_startproc
@ BB#0:
	.save	{r4, r10, r11, lr}
	push	{r4, r10, r11, lr}
.Ltmp286:
	.cfi_def_cfa_offset 16
.Ltmp287:
	.cfi_offset lr, -4
.Ltmp288:
	.cfi_offset r11, -8
.Ltmp289:
	.cfi_offset r10, -12
.Ltmp290:
	.cfi_offset r4, -16
	.setfp	r11, sp, #8
	add	r11, sp, #8
.Ltmp291:
	.cfi_def_cfa r11, 8
	@DEBUG_VALUE: process_fft_background: <- %R0
.Ltmp292:
	.loc	1 342 28 prologue_end   @ /root/Bela/projects/Autotune/render.cpp:342:28
	movw	r4, :lower16:.L_MergedGlobals
	movt	r4, :upper16:.L_MergedGlobals
	.loc	1 342 2 is_stmt 0       @ /root/Bela/projects/Autotune/render.cpp:342:2
	add	r0, r4, #64
.Ltmp293:
	.loc	1 342 70                @ /root/Bela/projects/Autotune/render.cpp:342:70
	ldr	r3, [r4, #36]
	.loc	1 342 2                 @ /root/Bela/projects/Autotune/render.cpp:342:2
	add	r2, r4, #88
	.loc	1 342 28                @ /root/Bela/projects/Autotune/render.cpp:342:28
	ldr	r1, [r4, #48]
	.loc	1 342 2                 @ /root/Bela/projects/Autotune/render.cpp:342:2
	bl	_Z11process_fftRKSt6vectorIfSaIfEEjRS1_j
	.loc	1 345 31 is_stmt 1      @ /root/Bela/projects/Autotune/render.cpp:345:31
	ldr	r0, [r4, #36]
	.loc	1 345 57 is_stmt 0      @ /root/Bela/projects/Autotune/render.cpp:345:57
	add	r0, r0, #128
	.loc	1 345 69                @ /root/Bela/projects/Autotune/render.cpp:345:69
	asr	r1, r0, #31
	add	r1, r0, r1, lsr #18
	bfc	r1, #0, #14
	sub	r0, r0, r1
	.loc	1 345 28                @ /root/Bela/projects/Autotune/render.cpp:345:28
	str	r0, [r4, #36]
	.loc	1 346 1 is_stmt 1       @ /root/Bela/projects/Autotune/render.cpp:346:1
	pop	{r4, r10, r11, pc}
.Ltmp294:
.Lfunc_end4:
	.size	_Z22process_fft_backgroundPv, .Lfunc_end4-_Z22process_fft_backgroundPv
	.cfi_endproc
	.fnend

	.globl	_Z9wrapPhasef
	.p2align	3
	.type	_Z9wrapPhasef,%function
_Z9wrapPhasef:                          @ @_Z9wrapPhasef
.Lfunc_begin5:
	.loc	1 134 0                 @ /root/Bela/projects/Autotune/render.cpp:134:0
	.fnstart
	.cfi_startproc
@ BB#0:
	.save	{r11, lr}
	push	{r11, lr}
.Ltmp295:
	.cfi_def_cfa_offset 8
.Ltmp296:
	.cfi_offset lr, -4
.Ltmp297:
	.cfi_offset r11, -8
	.setfp	r11, sp
	mov	r11, sp
.Ltmp298:
	.cfi_def_cfa_register r11
	@DEBUG_VALUE: wrapPhase:phaseIn <- %S0
.Ltmp299:
	.loc	1 136 22 prologue_end   @ /root/Bela/projects/Autotune/render.cpp:136:22
	vcvt.f64.f32	d16, s0
.Ltmp300:
	.loc	1 135 9                 @ /root/Bela/projects/Autotune/render.cpp:135:9
	vcmpe.f32	s0, #0
	vmrs	APSR_nzcv, fpscr
	bge	.LBB5_2
.Ltmp301:
@ BB#1:
	@DEBUG_VALUE: wrapPhase:phaseIn <- %S0
	.loc	1 138 30                @ /root/Bela/projects/Autotune/render.cpp:138:30
	vldr	d17, .LCPI5_2
	.loc	1 138 16 is_stmt 0      @ /root/Bela/projects/Autotune/render.cpp:138:16
	vldr	s1, .LCPI5_3
	.loc	1 138 30                @ /root/Bela/projects/Autotune/render.cpp:138:30
	vadd.f64	d16, d16, d17
	.loc	1 138 22                @ /root/Bela/projects/Autotune/render.cpp:138:22
	vcvt.f32.f64	s0, d16
.Ltmp302:
	.loc	1 138 16                @ /root/Bela/projects/Autotune/render.cpp:138:16
	bl	__fmodf_finite
	vcvt.f64.f32	d16, s0
	.loc	1 138 87                @ /root/Bela/projects/Autotune/render.cpp:138:87
	vldr	d17, .LCPI5_0
	b	.LBB5_3
.LBB5_2:
.Ltmp303:
	@DEBUG_VALUE: wrapPhase:phaseIn <- %S0
	.loc	1 136 30 is_stmt 1      @ /root/Bela/projects/Autotune/render.cpp:136:30
	vldr	d17, .LCPI5_0
	.loc	1 136 16 is_stmt 0      @ /root/Bela/projects/Autotune/render.cpp:136:16
	vldr	s1, .LCPI5_1
	.loc	1 136 30                @ /root/Bela/projects/Autotune/render.cpp:136:30
	vadd.f64	d16, d16, d17
	.loc	1 136 22                @ /root/Bela/projects/Autotune/render.cpp:136:22
	vcvt.f32.f64	s0, d16
.Ltmp304:
	.loc	1 136 16                @ /root/Bela/projects/Autotune/render.cpp:136:16
	bl	__fmodf_finite
	vcvt.f64.f32	d16, s0
	.loc	1 136 86                @ /root/Bela/projects/Autotune/render.cpp:136:86
	vldr	d17, .LCPI5_2
.LBB5_3:
	.loc	1 138 87 is_stmt 1      @ /root/Bela/projects/Autotune/render.cpp:138:87
	vadd.f64	d16, d16, d17
	.loc	1 136 16                @ /root/Bela/projects/Autotune/render.cpp:136:16
	vcvt.f32.f64	s0, d16
.Ltmp305:
	.loc	1 139 1                 @ /root/Bela/projects/Autotune/render.cpp:139:1
	pop	{r11, pc}
.Ltmp306:
	.p2align	3
@ BB#4:
.LCPI5_0:
	.long	1413754136              @ double 3.1415926535897931
	.long	1074340347
.LCPI5_2:
	.long	1413754136              @ double -3.1415926535897931
	.long	3221823995
.LCPI5_1:
	.long	1086918619              @ float 6.28318548
.LCPI5_3:
	.long	3234402267              @ float -6.28318548
.Lfunc_end5:
	.size	_Z9wrapPhasef, .Lfunc_end5-_Z9wrapPhasef
	.cfi_endproc
	.fnend

	.globl	_Z11process_fftRKSt6vectorIfSaIfEEjRS1_j
	.p2align	3
	.type	_Z11process_fftRKSt6vectorIfSaIfEEjRS1_j,%function
_Z11process_fftRKSt6vectorIfSaIfEEjRS1_j: @ @_Z11process_fftRKSt6vectorIfSaIfEEjRS1_j
.Lfunc_begin6:
	.loc	1 150 0                 @ /root/Bela/projects/Autotune/render.cpp:150:0
	.fnstart
	.cfi_startproc
@ BB#0:
	.save	{r4, r5, r6, r7, r8, r9, r10, r11, lr}
	push	{r4, r5, r6, r7, r8, r9, r10, r11, lr}
.Ltmp337:
	.cfi_def_cfa_offset 36
.Ltmp338:
	.cfi_offset lr, -4
.Ltmp339:
	.cfi_offset r11, -8
.Ltmp340:
	.cfi_offset r10, -12
.Ltmp341:
	.cfi_offset r9, -16
.Ltmp342:
	.cfi_offset r8, -20
.Ltmp343:
	.cfi_offset r7, -24
.Ltmp344:
	.cfi_offset r6, -28
.Ltmp345:
	.cfi_offset r5, -32
.Ltmp346:
	.cfi_offset r4, -36
	.setfp	r11, sp, #28
	add	r11, sp, #28
.Ltmp347:
	.cfi_def_cfa r11, 8
	.pad	#4
	sub	sp, sp, #4
	.vsave	{d8, d9, d10, d11, d12, d13, d14, d15}
	vpush	{d8, d9, d10, d11, d12, d13, d14, d15}
.Ltmp348:
	.cfi_offset d15, -48
.Ltmp349:
	.cfi_offset d14, -56
.Ltmp350:
	.cfi_offset d13, -64
.Ltmp351:
	.cfi_offset d12, -72
.Ltmp352:
	.cfi_offset d11, -80
.Ltmp353:
	.cfi_offset d10, -88
.Ltmp354:
	.cfi_offset d9, -96
.Ltmp355:
	.cfi_offset d8, -104
	.pad	#24
	sub	sp, sp, #24
	@DEBUG_VALUE: process_fft:inBuffer <- %R0
	@DEBUG_VALUE: process_fft:inPointer <- %R1
	@DEBUG_VALUE: process_fft:outBuffer <- %R2
	@DEBUG_VALUE: process_fft:outPointer <- %R3
.Ltmp356:
	.loc	1 151 2 prologue_end    @ /root/Bela/projects/Autotune/render.cpp:151:2
	movw	r9, :lower16:.L_MergedGlobals.3
	str	r3, [sp, #8]            @ 4-byte Spill
.Ltmp357:
	@DEBUG_VALUE: process_fft:outPointer <- [%SP+8]
	movt	r9, :upper16:.L_MergedGlobals.3
	mov	r8, r0
.Ltmp358:
	@DEBUG_VALUE: process_fft:inBuffer <- %R8
	ldrb	r0, [r9]
	mov	r10, r2
.Ltmp359:
	@DEBUG_VALUE: process_fft:outBuffer <- %R10
	mov	r6, r1
.Ltmp360:
	@DEBUG_VALUE: process_fft:inPointer <- %R6
	dmb	ish
	tst	r0, #1
	bne	.LBB6_4
.Ltmp361:
@ BB#1:
	@DEBUG_VALUE: process_fft:inPointer <- %R6
	@DEBUG_VALUE: process_fft:outBuffer <- %R10
	@DEBUG_VALUE: process_fft:inBuffer <- %R8
	@DEBUG_VALUE: process_fft:outPointer <- [%SP+8]
	.loc	1 151 2 is_stmt 0 discriminator 1 @ /root/Bela/projects/Autotune/render.cpp:151:2
	movw	r4, :lower16:.L_MergedGlobals.3
	movt	r4, :upper16:.L_MergedGlobals.3
	mov	r0, r4
	bl	__cxa_guard_acquire
.Ltmp362:
	cmp	r0, #0
	beq	.LBB6_4
.Ltmp363:
@ BB#2:
	@DEBUG_VALUE: process_fft:inPointer <- %R6
	@DEBUG_VALUE: process_fft:outBuffer <- %R10
	@DEBUG_VALUE: process_fft:inBuffer <- %R8
	@DEBUG_VALUE: vector:__n <- 1024
	@DEBUG_VALUE: _Vector_base:__n <- 1024
	mov	r0, #0
.Ltmp364:
	@DEBUG_VALUE: allocate:__n <- 1024
	@DEBUG_VALUE: allocate:__n <- 1024
	@DEBUG_VALUE: _M_allocate:__n <- 1024
	@DEBUG_VALUE: _M_create_storage:__n <- 1024
	.loc	10 91 25 is_stmt 1      @ /usr/bin/../lib/gcc/arm-linux-gnueabihf/6.3.0/../../../../include/c++/6.3.0/bits/stl_vector.h:91:25
	str	r0, [r4, #40]
	.loc	10 91 37 is_stmt 0      @ /usr/bin/../lib/gcc/arm-linux-gnueabihf/6.3.0/../../../../include/c++/6.3.0/bits/stl_vector.h:91:37
	str	r0, [r4, #44]
	.loc	10 91 50                @ /usr/bin/../lib/gcc/arm-linux-gnueabihf/6.3.0/../../../../include/c++/6.3.0/bits/stl_vector.h:91:50
	str	r0, [r4, #48]
.Ltmp365:
	.loc	6 104 27 is_stmt 1      @ /usr/bin/../lib/gcc/arm-linux-gnueabihf/6.3.0/../../../../include/c++/6.3.0/ext/new_allocator.h:104:27
.Ltmp307:
	mov	r0, #4096
	bl	_Znwj
.Ltmp308:
.Ltmp366:
@ BB#3:
	@DEBUG_VALUE: process_fft:inPointer <- %R6
	@DEBUG_VALUE: process_fft:outBuffer <- %R10
	@DEBUG_VALUE: process_fft:inBuffer <- %R8
	.loc	10 185 25               @ /usr/bin/../lib/gcc/arm-linux-gnueabihf/6.3.0/../../../../include/c++/6.3.0/bits/stl_vector.h:185:25
	mov	r5, r4
.Ltmp367:
	.file	59 "/usr/bin/../lib/gcc/arm-linux-gnueabihf/6.3.0/../../../../include/c++/6.3.0/bits" "stl_algobase.h"
	.loc	59 754 11               @ /usr/bin/../lib/gcc/arm-linux-gnueabihf/6.3.0/../../../../include/c++/6.3.0/bits/stl_algobase.h:754:11
	mov	r1, #0
	mov	r2, #4096
.Ltmp368:
	.loc	10 185 25               @ /usr/bin/../lib/gcc/arm-linux-gnueabihf/6.3.0/../../../../include/c++/6.3.0/bits/stl_vector.h:185:25
	str	r0, [r5, #40]!
.Ltmp369:
	@DEBUG_VALUE: _M_default_initialize:this <- %R5
	@DEBUG_VALUE: vector:this <- %R5
	.loc	10 187 59               @ /usr/bin/../lib/gcc/arm-linux-gnueabihf/6.3.0/../../../../include/c++/6.3.0/bits/stl_vector.h:187:59
	add	r7, r0, #4096
	.loc	10 187 34 is_stmt 0     @ /usr/bin/../lib/gcc/arm-linux-gnueabihf/6.3.0/../../../../include/c++/6.3.0/bits/stl_vector.h:187:34
	str	r7, [r4, #48]
.Ltmp370:
	@DEBUG_VALUE: __niter <- 1024
	@DEBUG_VALUE: __fill_n_a<float *, unsigned int, float>:__n <- 1024
	@DEBUG_VALUE: fill_n<float *, unsigned int, float>:__n <- 1024
	@DEBUG_VALUE: __uninit_default_n<float *, unsigned int>:__n <- 1024
	@DEBUG_VALUE: __uninitialized_default_n<float *, unsigned int>:__assignable <- 1
	@DEBUG_VALUE: __uninitialized_default_n<float *, unsigned int>:__n <- 1024
	@DEBUG_VALUE: __uninitialized_default_n_a<float *, unsigned int, float>:__n <- 1024
	@DEBUG_VALUE: _M_default_initialize:__n <- 1024
	.loc	59 754 11 is_stmt 1     @ /usr/bin/../lib/gcc/arm-linux-gnueabihf/6.3.0/../../../../include/c++/6.3.0/bits/stl_algobase.h:754:11
	bl	memset
.Ltmp371:
	.loc	1 151 2 discriminator 8 @ /root/Bela/projects/Autotune/render.cpp:151:2
	movw	r0, :lower16:_ZNSt6vectorIfSaIfEED2Ev
	movw	r2, :lower16:__dso_handle
	movt	r0, :upper16:_ZNSt6vectorIfSaIfEED2Ev
	movt	r2, :upper16:__dso_handle
	mov	r1, r5
.Ltmp372:
	.loc	10 1308 26              @ /usr/bin/../lib/gcc/arm-linux-gnueabihf/6.3.0/../../../../include/c++/6.3.0/bits/stl_vector.h:1308:26
	str	r7, [r4, #44]
.Ltmp373:
	.loc	1 151 2 discriminator 8 @ /root/Bela/projects/Autotune/render.cpp:151:2
	bl	__cxa_atexit
	.loc	1 151 2 is_stmt 0 discriminator 9 @ /root/Bela/projects/Autotune/render.cpp:151:2
	mov	r0, r4
	bl	__cxa_guard_release
.Ltmp374:
.LBB6_4:
	@DEBUG_VALUE: process_fft:inPointer <- %R6
	@DEBUG_VALUE: process_fft:outBuffer <- %R10
	@DEBUG_VALUE: process_fft:inBuffer <- %R8
	.loc	1 153 2 is_stmt 1       @ /root/Bela/projects/Autotune/render.cpp:153:2
	ldrb	r0, [r9, #4]
	dmb	ish
	tst	r0, #1
	bne	.LBB6_8
.Ltmp375:
@ BB#5:
	@DEBUG_VALUE: process_fft:inPointer <- %R6
	@DEBUG_VALUE: process_fft:outBuffer <- %R10
	@DEBUG_VALUE: process_fft:inBuffer <- %R8
	.loc	1 153 2 is_stmt 0 discriminator 1 @ /root/Bela/projects/Autotune/render.cpp:153:2
	add	r4, r9, #4
	mov	r0, r4
	bl	__cxa_guard_acquire
	cmp	r0, #0
	beq	.LBB6_8
.Ltmp376:
@ BB#6:
	@DEBUG_VALUE: process_fft:inPointer <- %R6
	@DEBUG_VALUE: process_fft:outBuffer <- %R10
	@DEBUG_VALUE: process_fft:inBuffer <- %R8
	@DEBUG_VALUE: vector:__n <- 1024
	@DEBUG_VALUE: _Vector_base:__n <- 1024
	mov	r0, #0
.Ltmp377:
	@DEBUG_VALUE: allocate:__n <- 1024
	@DEBUG_VALUE: allocate:__n <- 1024
	@DEBUG_VALUE: _M_allocate:__n <- 1024
	@DEBUG_VALUE: _M_create_storage:__n <- 1024
	.loc	10 91 25 is_stmt 1      @ /usr/bin/../lib/gcc/arm-linux-gnueabihf/6.3.0/../../../../include/c++/6.3.0/bits/stl_vector.h:91:25
	str	r0, [r9, #52]
	.loc	10 91 37 is_stmt 0      @ /usr/bin/../lib/gcc/arm-linux-gnueabihf/6.3.0/../../../../include/c++/6.3.0/bits/stl_vector.h:91:37
	str	r0, [r9, #56]
	.loc	10 91 50                @ /usr/bin/../lib/gcc/arm-linux-gnueabihf/6.3.0/../../../../include/c++/6.3.0/bits/stl_vector.h:91:50
	str	r0, [r9, #60]
.Ltmp378:
	.loc	6 104 27 is_stmt 1      @ /usr/bin/../lib/gcc/arm-linux-gnueabihf/6.3.0/../../../../include/c++/6.3.0/ext/new_allocator.h:104:27
.Ltmp310:
	mov	r0, #4096
	bl	_Znwj
.Ltmp311:
.Ltmp379:
@ BB#7:
	@DEBUG_VALUE: process_fft:inPointer <- %R6
	@DEBUG_VALUE: process_fft:outBuffer <- %R10
	@DEBUG_VALUE: process_fft:inBuffer <- %R8
	.loc	10 185 25               @ /usr/bin/../lib/gcc/arm-linux-gnueabihf/6.3.0/../../../../include/c++/6.3.0/bits/stl_vector.h:185:25
	mov	r4, r9
.Ltmp380:
	.loc	59 754 11               @ /usr/bin/../lib/gcc/arm-linux-gnueabihf/6.3.0/../../../../include/c++/6.3.0/bits/stl_algobase.h:754:11
	mov	r1, #0
.Ltmp381:
	.loc	10 185 25               @ /usr/bin/../lib/gcc/arm-linux-gnueabihf/6.3.0/../../../../include/c++/6.3.0/bits/stl_vector.h:185:25
	str	r0, [r4, #52]!
.Ltmp382:
	@DEBUG_VALUE: _M_default_initialize:this <- %R4
	@DEBUG_VALUE: vector:this <- %R4
	.loc	59 754 11               @ /usr/bin/../lib/gcc/arm-linux-gnueabihf/6.3.0/../../../../include/c++/6.3.0/bits/stl_algobase.h:754:11
	mov	r2, #4096
.Ltmp383:
	.loc	10 187 59               @ /usr/bin/../lib/gcc/arm-linux-gnueabihf/6.3.0/../../../../include/c++/6.3.0/bits/stl_vector.h:187:59
	add	r5, r0, #4096
	.loc	10 187 34 is_stmt 0     @ /usr/bin/../lib/gcc/arm-linux-gnueabihf/6.3.0/../../../../include/c++/6.3.0/bits/stl_vector.h:187:34
	str	r5, [r4, #8]
.Ltmp384:
	@DEBUG_VALUE: __niter <- 1024
	@DEBUG_VALUE: __fill_n_a<float *, unsigned int, float>:__n <- 1024
	@DEBUG_VALUE: fill_n<float *, unsigned int, float>:__n <- 1024
	@DEBUG_VALUE: __uninit_default_n<float *, unsigned int>:__n <- 1024
	@DEBUG_VALUE: __uninitialized_default_n<float *, unsigned int>:__assignable <- 1
	@DEBUG_VALUE: __uninitialized_default_n<float *, unsigned int>:__n <- 1024
	@DEBUG_VALUE: __uninitialized_default_n_a<float *, unsigned int, float>:__n <- 1024
	@DEBUG_VALUE: _M_default_initialize:__n <- 1024
	.loc	59 754 11 is_stmt 1     @ /usr/bin/../lib/gcc/arm-linux-gnueabihf/6.3.0/../../../../include/c++/6.3.0/bits/stl_algobase.h:754:11
	bl	memset
.Ltmp385:
	.loc	1 153 2 discriminator 7 @ /root/Bela/projects/Autotune/render.cpp:153:2
	movw	r0, :lower16:_ZNSt6vectorIfSaIfEED2Ev
	movw	r2, :lower16:__dso_handle
	movt	r0, :upper16:_ZNSt6vectorIfSaIfEED2Ev
	movt	r2, :upper16:__dso_handle
	mov	r1, r4
.Ltmp386:
	.loc	10 1308 26              @ /usr/bin/../lib/gcc/arm-linux-gnueabihf/6.3.0/../../../../include/c++/6.3.0/bits/stl_vector.h:1308:26
	str	r5, [r4, #4]
.Ltmp387:
	.loc	1 153 2 discriminator 7 @ /root/Bela/projects/Autotune/render.cpp:153:2
	bl	__cxa_atexit
	.loc	1 153 2 is_stmt 0 discriminator 8 @ /root/Bela/projects/Autotune/render.cpp:153:2
	sub	r0, r4, #48
	bl	__cxa_guard_release
.Ltmp388:
.LBB6_8:
	@DEBUG_VALUE: process_fft:inPointer <- %R6
	@DEBUG_VALUE: process_fft:outBuffer <- %R10
	@DEBUG_VALUE: process_fft:inBuffer <- %R8
	.loc	1 154 2 is_stmt 1       @ /root/Bela/projects/Autotune/render.cpp:154:2
	ldrb	r0, [r9, #8]
	dmb	ish
	tst	r0, #1
	bne	.LBB6_12
.Ltmp389:
@ BB#9:
	@DEBUG_VALUE: process_fft:inPointer <- %R6
	@DEBUG_VALUE: process_fft:outBuffer <- %R10
	@DEBUG_VALUE: process_fft:inBuffer <- %R8
	.loc	1 154 2 is_stmt 0 discriminator 1 @ /root/Bela/projects/Autotune/render.cpp:154:2
	add	r4, r9, #8
	mov	r0, r4
	bl	__cxa_guard_acquire
	cmp	r0, #0
	beq	.LBB6_12
.Ltmp390:
@ BB#10:
	@DEBUG_VALUE: process_fft:inPointer <- %R6
	@DEBUG_VALUE: process_fft:outBuffer <- %R10
	@DEBUG_VALUE: process_fft:inBuffer <- %R8
	@DEBUG_VALUE: vector:__n <- 1024
	@DEBUG_VALUE: _Vector_base:__n <- 1024
	mov	r0, #0
.Ltmp391:
	@DEBUG_VALUE: allocate:__n <- 1024
	@DEBUG_VALUE: allocate:__n <- 1024
	@DEBUG_VALUE: _M_allocate:__n <- 1024
	@DEBUG_VALUE: _M_create_storage:__n <- 1024
	.loc	10 91 25 is_stmt 1      @ /usr/bin/../lib/gcc/arm-linux-gnueabihf/6.3.0/../../../../include/c++/6.3.0/bits/stl_vector.h:91:25
	str	r0, [r9, #64]
	.loc	10 91 37 is_stmt 0      @ /usr/bin/../lib/gcc/arm-linux-gnueabihf/6.3.0/../../../../include/c++/6.3.0/bits/stl_vector.h:91:37
	str	r0, [r9, #68]
	.loc	10 91 50                @ /usr/bin/../lib/gcc/arm-linux-gnueabihf/6.3.0/../../../../include/c++/6.3.0/bits/stl_vector.h:91:50
	str	r0, [r9, #72]
.Ltmp392:
	.loc	6 104 27 is_stmt 1      @ /usr/bin/../lib/gcc/arm-linux-gnueabihf/6.3.0/../../../../include/c++/6.3.0/ext/new_allocator.h:104:27
.Ltmp313:
	mov	r0, #4096
	bl	_Znwj
.Ltmp314:
.Ltmp393:
@ BB#11:
	@DEBUG_VALUE: process_fft:inPointer <- %R6
	@DEBUG_VALUE: process_fft:outBuffer <- %R10
	@DEBUG_VALUE: process_fft:inBuffer <- %R8
	.loc	10 185 25               @ /usr/bin/../lib/gcc/arm-linux-gnueabihf/6.3.0/../../../../include/c++/6.3.0/bits/stl_vector.h:185:25
	mov	r4, r9
.Ltmp394:
	.loc	59 754 11               @ /usr/bin/../lib/gcc/arm-linux-gnueabihf/6.3.0/../../../../include/c++/6.3.0/bits/stl_algobase.h:754:11
	mov	r1, #0
.Ltmp395:
	.loc	10 185 25               @ /usr/bin/../lib/gcc/arm-linux-gnueabihf/6.3.0/../../../../include/c++/6.3.0/bits/stl_vector.h:185:25
	str	r0, [r4, #64]!
.Ltmp396:
	@DEBUG_VALUE: _M_default_initialize:this <- %R4
	@DEBUG_VALUE: vector:this <- %R4
	.loc	59 754 11               @ /usr/bin/../lib/gcc/arm-linux-gnueabihf/6.3.0/../../../../include/c++/6.3.0/bits/stl_algobase.h:754:11
	mov	r2, #4096
.Ltmp397:
	.loc	10 187 59               @ /usr/bin/../lib/gcc/arm-linux-gnueabihf/6.3.0/../../../../include/c++/6.3.0/bits/stl_vector.h:187:59
	add	r5, r0, #4096
	.loc	10 187 34 is_stmt 0     @ /usr/bin/../lib/gcc/arm-linux-gnueabihf/6.3.0/../../../../include/c++/6.3.0/bits/stl_vector.h:187:34
	str	r5, [r4, #8]
.Ltmp398:
	@DEBUG_VALUE: __niter <- 1024
	@DEBUG_VALUE: __fill_n_a<float *, unsigned int, float>:__n <- 1024
	@DEBUG_VALUE: fill_n<float *, unsigned int, float>:__n <- 1024
	@DEBUG_VALUE: __uninit_default_n<float *, unsigned int>:__n <- 1024
	@DEBUG_VALUE: __uninitialized_default_n<float *, unsigned int>:__assignable <- 1
	@DEBUG_VALUE: __uninitialized_default_n<float *, unsigned int>:__n <- 1024
	@DEBUG_VALUE: __uninitialized_default_n_a<float *, unsigned int, float>:__n <- 1024
	@DEBUG_VALUE: _M_default_initialize:__n <- 1024
	.loc	59 754 11 is_stmt 1     @ /usr/bin/../lib/gcc/arm-linux-gnueabihf/6.3.0/../../../../include/c++/6.3.0/bits/stl_algobase.h:754:11
	bl	memset
.Ltmp399:
	.loc	1 154 2 discriminator 7 @ /root/Bela/projects/Autotune/render.cpp:154:2
	movw	r0, :lower16:_ZNSt6vectorIfSaIfEED2Ev
	movw	r2, :lower16:__dso_handle
	movt	r0, :upper16:_ZNSt6vectorIfSaIfEED2Ev
	movt	r2, :upper16:__dso_handle
	mov	r1, r4
.Ltmp400:
	.loc	10 1308 26              @ /usr/bin/../lib/gcc/arm-linux-gnueabihf/6.3.0/../../../../include/c++/6.3.0/bits/stl_vector.h:1308:26
	str	r5, [r4, #4]
.Ltmp401:
	.loc	1 154 2 discriminator 7 @ /root/Bela/projects/Autotune/render.cpp:154:2
	bl	__cxa_atexit
	.loc	1 154 2 is_stmt 0 discriminator 8 @ /root/Bela/projects/Autotune/render.cpp:154:2
	sub	r0, r4, #56
	bl	__cxa_guard_release
.Ltmp402:
.LBB6_12:
	@DEBUG_VALUE: process_fft:inPointer <- %R6
	@DEBUG_VALUE: process_fft:outBuffer <- %R10
	@DEBUG_VALUE: process_fft:inBuffer <- %R8
	.loc	1 158 2 is_stmt 1       @ /root/Bela/projects/Autotune/render.cpp:158:2
	ldrb	r0, [r9, #12]
	dmb	ish
	tst	r0, #1
	bne	.LBB6_16
.Ltmp403:
@ BB#13:
	@DEBUG_VALUE: process_fft:inPointer <- %R6
	@DEBUG_VALUE: process_fft:outBuffer <- %R10
	@DEBUG_VALUE: process_fft:inBuffer <- %R8
	.loc	1 158 2 is_stmt 0 discriminator 1 @ /root/Bela/projects/Autotune/render.cpp:158:2
	add	r4, r9, #12
	mov	r0, r4
	bl	__cxa_guard_acquire
	cmp	r0, #0
	beq	.LBB6_16
.Ltmp404:
@ BB#14:
	@DEBUG_VALUE: process_fft:inPointer <- %R6
	@DEBUG_VALUE: process_fft:outBuffer <- %R10
	@DEBUG_VALUE: process_fft:inBuffer <- %R8
	@DEBUG_VALUE: vector:__n <- 513
	@DEBUG_VALUE: _Vector_base:__n <- 513
	mov	r0, #0
.Ltmp405:
	@DEBUG_VALUE: allocate:__n <- 513
	@DEBUG_VALUE: allocate:__n <- 513
	@DEBUG_VALUE: _M_allocate:__n <- 513
	@DEBUG_VALUE: _M_create_storage:__n <- 513
	.loc	10 91 25 is_stmt 1      @ /usr/bin/../lib/gcc/arm-linux-gnueabihf/6.3.0/../../../../include/c++/6.3.0/bits/stl_vector.h:91:25
	str	r0, [r9, #76]
	.loc	10 91 37 is_stmt 0      @ /usr/bin/../lib/gcc/arm-linux-gnueabihf/6.3.0/../../../../include/c++/6.3.0/bits/stl_vector.h:91:37
	str	r0, [r9, #80]
	.loc	10 91 50                @ /usr/bin/../lib/gcc/arm-linux-gnueabihf/6.3.0/../../../../include/c++/6.3.0/bits/stl_vector.h:91:50
	str	r0, [r9, #84]
.Ltmp406:
	.loc	6 104 27 is_stmt 1      @ /usr/bin/../lib/gcc/arm-linux-gnueabihf/6.3.0/../../../../include/c++/6.3.0/ext/new_allocator.h:104:27
.Ltmp316:
	movw	r0, #2052
	movw	r5, #2052
	bl	_Znwj
.Ltmp317:
.Ltmp407:
@ BB#15:
	@DEBUG_VALUE: process_fft:inPointer <- %R6
	@DEBUG_VALUE: process_fft:outBuffer <- %R10
	@DEBUG_VALUE: process_fft:inBuffer <- %R8
	.loc	10 185 25               @ /usr/bin/../lib/gcc/arm-linux-gnueabihf/6.3.0/../../../../include/c++/6.3.0/bits/stl_vector.h:185:25
	mov	r4, r9
.Ltmp408:
	.loc	59 754 11               @ /usr/bin/../lib/gcc/arm-linux-gnueabihf/6.3.0/../../../../include/c++/6.3.0/bits/stl_algobase.h:754:11
	mov	r1, #0
.Ltmp409:
	.loc	10 185 25               @ /usr/bin/../lib/gcc/arm-linux-gnueabihf/6.3.0/../../../../include/c++/6.3.0/bits/stl_vector.h:185:25
	str	r0, [r4, #76]!
.Ltmp410:
	@DEBUG_VALUE: _M_default_initialize:this <- %R4
	@DEBUG_VALUE: vector:this <- %R4
	.loc	59 754 11               @ /usr/bin/../lib/gcc/arm-linux-gnueabihf/6.3.0/../../../../include/c++/6.3.0/bits/stl_algobase.h:754:11
	movw	r2, #2052
.Ltmp411:
	.loc	10 187 59               @ /usr/bin/../lib/gcc/arm-linux-gnueabihf/6.3.0/../../../../include/c++/6.3.0/bits/stl_vector.h:187:59
	add	r5, r0, r5
	.loc	10 187 34 is_stmt 0     @ /usr/bin/../lib/gcc/arm-linux-gnueabihf/6.3.0/../../../../include/c++/6.3.0/bits/stl_vector.h:187:34
	str	r5, [r4, #8]
.Ltmp412:
	@DEBUG_VALUE: __niter <- 513
	@DEBUG_VALUE: __fill_n_a<float *, unsigned int, float>:__n <- 513
	@DEBUG_VALUE: fill_n<float *, unsigned int, float>:__n <- 513
	@DEBUG_VALUE: __uninit_default_n<float *, unsigned int>:__n <- 513
	@DEBUG_VALUE: __uninitialized_default_n<float *, unsigned int>:__assignable <- 1
	@DEBUG_VALUE: __uninitialized_default_n<float *, unsigned int>:__n <- 513
	@DEBUG_VALUE: __uninitialized_default_n_a<float *, unsigned int, float>:__n <- 513
	@DEBUG_VALUE: _M_default_initialize:__n <- 513
	.loc	59 754 11 is_stmt 1     @ /usr/bin/../lib/gcc/arm-linux-gnueabihf/6.3.0/../../../../include/c++/6.3.0/bits/stl_algobase.h:754:11
	bl	memset
.Ltmp413:
	.loc	1 158 2 discriminator 7 @ /root/Bela/projects/Autotune/render.cpp:158:2
	movw	r0, :lower16:_ZNSt6vectorIfSaIfEED2Ev
	movw	r2, :lower16:__dso_handle
	movt	r0, :upper16:_ZNSt6vectorIfSaIfEED2Ev
	movt	r2, :upper16:__dso_handle
	mov	r1, r4
.Ltmp414:
	.loc	10 1308 26              @ /usr/bin/../lib/gcc/arm-linux-gnueabihf/6.3.0/../../../../include/c++/6.3.0/bits/stl_vector.h:1308:26
	str	r5, [r4, #4]
.Ltmp415:
	.loc	1 158 2 discriminator 7 @ /root/Bela/projects/Autotune/render.cpp:158:2
	bl	__cxa_atexit
	.loc	1 158 2 is_stmt 0 discriminator 8 @ /root/Bela/projects/Autotune/render.cpp:158:2
	sub	r0, r4, #64
	bl	__cxa_guard_release
.Ltmp416:
.LBB6_16:
	@DEBUG_VALUE: process_fft:inPointer <- %R6
	@DEBUG_VALUE: process_fft:outBuffer <- %R10
	@DEBUG_VALUE: process_fft:inBuffer <- %R8
	.loc	1 159 2 is_stmt 1       @ /root/Bela/projects/Autotune/render.cpp:159:2
	ldrb	r0, [r9, #16]
	dmb	ish
	tst	r0, #1
	bne	.LBB6_20
.Ltmp417:
@ BB#17:
	@DEBUG_VALUE: process_fft:inPointer <- %R6
	@DEBUG_VALUE: process_fft:outBuffer <- %R10
	@DEBUG_VALUE: process_fft:inBuffer <- %R8
	.loc	1 159 2 is_stmt 0 discriminator 1 @ /root/Bela/projects/Autotune/render.cpp:159:2
	add	r4, r9, #16
	mov	r0, r4
	bl	__cxa_guard_acquire
	cmp	r0, #0
	beq	.LBB6_20
.Ltmp418:
@ BB#18:
	@DEBUG_VALUE: process_fft:inPointer <- %R6
	@DEBUG_VALUE: process_fft:outBuffer <- %R10
	@DEBUG_VALUE: process_fft:inBuffer <- %R8
	@DEBUG_VALUE: vector:__n <- 513
	@DEBUG_VALUE: _Vector_base:__n <- 513
	mov	r0, #0
.Ltmp419:
	@DEBUG_VALUE: allocate:__n <- 513
	@DEBUG_VALUE: allocate:__n <- 513
	@DEBUG_VALUE: _M_allocate:__n <- 513
	@DEBUG_VALUE: _M_create_storage:__n <- 513
	.loc	10 91 25 is_stmt 1      @ /usr/bin/../lib/gcc/arm-linux-gnueabihf/6.3.0/../../../../include/c++/6.3.0/bits/stl_vector.h:91:25
	str	r0, [r9, #88]
	.loc	10 91 37 is_stmt 0      @ /usr/bin/../lib/gcc/arm-linux-gnueabihf/6.3.0/../../../../include/c++/6.3.0/bits/stl_vector.h:91:37
	str	r0, [r9, #92]
	.loc	10 91 50                @ /usr/bin/../lib/gcc/arm-linux-gnueabihf/6.3.0/../../../../include/c++/6.3.0/bits/stl_vector.h:91:50
	str	r0, [r9, #96]
.Ltmp420:
	.loc	6 104 27 is_stmt 1      @ /usr/bin/../lib/gcc/arm-linux-gnueabihf/6.3.0/../../../../include/c++/6.3.0/ext/new_allocator.h:104:27
.Ltmp319:
	movw	r0, #2052
	movw	r5, #2052
	bl	_Znwj
.Ltmp320:
.Ltmp421:
@ BB#19:
	@DEBUG_VALUE: process_fft:inPointer <- %R6
	@DEBUG_VALUE: process_fft:outBuffer <- %R10
	@DEBUG_VALUE: process_fft:inBuffer <- %R8
	.loc	10 185 25               @ /usr/bin/../lib/gcc/arm-linux-gnueabihf/6.3.0/../../../../include/c++/6.3.0/bits/stl_vector.h:185:25
	mov	r4, r9
.Ltmp422:
	.loc	59 754 11               @ /usr/bin/../lib/gcc/arm-linux-gnueabihf/6.3.0/../../../../include/c++/6.3.0/bits/stl_algobase.h:754:11
	mov	r1, #0
.Ltmp423:
	.loc	10 185 25               @ /usr/bin/../lib/gcc/arm-linux-gnueabihf/6.3.0/../../../../include/c++/6.3.0/bits/stl_vector.h:185:25
	str	r0, [r4, #88]!
.Ltmp424:
	@DEBUG_VALUE: _M_default_initialize:this <- %R4
	@DEBUG_VALUE: vector:this <- %R4
	.loc	59 754 11               @ /usr/bin/../lib/gcc/arm-linux-gnueabihf/6.3.0/../../../../include/c++/6.3.0/bits/stl_algobase.h:754:11
	movw	r2, #2052
.Ltmp425:
	.loc	10 187 59               @ /usr/bin/../lib/gcc/arm-linux-gnueabihf/6.3.0/../../../../include/c++/6.3.0/bits/stl_vector.h:187:59
	add	r5, r0, r5
	.loc	10 187 34 is_stmt 0     @ /usr/bin/../lib/gcc/arm-linux-gnueabihf/6.3.0/../../../../include/c++/6.3.0/bits/stl_vector.h:187:34
	str	r5, [r4, #8]
.Ltmp426:
	@DEBUG_VALUE: __niter <- 513
	@DEBUG_VALUE: __fill_n_a<float *, unsigned int, float>:__n <- 513
	@DEBUG_VALUE: fill_n<float *, unsigned int, float>:__n <- 513
	@DEBUG_VALUE: __uninit_default_n<float *, unsigned int>:__n <- 513
	@DEBUG_VALUE: __uninitialized_default_n<float *, unsigned int>:__assignable <- 1
	@DEBUG_VALUE: __uninitialized_default_n<float *, unsigned int>:__n <- 513
	@DEBUG_VALUE: __uninitialized_default_n_a<float *, unsigned int, float>:__n <- 513
	@DEBUG_VALUE: _M_default_initialize:__n <- 513
	.loc	59 754 11 is_stmt 1     @ /usr/bin/../lib/gcc/arm-linux-gnueabihf/6.3.0/../../../../include/c++/6.3.0/bits/stl_algobase.h:754:11
	bl	memset
.Ltmp427:
	.loc	1 159 2 discriminator 7 @ /root/Bela/projects/Autotune/render.cpp:159:2
	movw	r0, :lower16:_ZNSt6vectorIfSaIfEED2Ev
	movw	r2, :lower16:__dso_handle
	movt	r0, :upper16:_ZNSt6vectorIfSaIfEED2Ev
	movt	r2, :upper16:__dso_handle
	mov	r1, r4
.Ltmp428:
	.loc	10 1308 26              @ /usr/bin/../lib/gcc/arm-linux-gnueabihf/6.3.0/../../../../include/c++/6.3.0/bits/stl_vector.h:1308:26
	str	r5, [r4, #4]
.Ltmp429:
	.loc	1 159 2 discriminator 7 @ /root/Bela/projects/Autotune/render.cpp:159:2
	bl	__cxa_atexit
	.loc	1 159 2 is_stmt 0 discriminator 8 @ /root/Bela/projects/Autotune/render.cpp:159:2
	sub	r0, r4, #72
	bl	__cxa_guard_release
.Ltmp430:
.LBB6_20:
	@DEBUG_VALUE: process_fft:inPointer <- %R6
	@DEBUG_VALUE: process_fft:outBuffer <- %R10
	@DEBUG_VALUE: process_fft:inBuffer <- %R8
	.loc	1 160 2 is_stmt 1       @ /root/Bela/projects/Autotune/render.cpp:160:2
	ldrb	r0, [r9, #20]
	dmb	ish
	tst	r0, #1
	bne	.LBB6_24
.Ltmp431:
@ BB#21:
	@DEBUG_VALUE: process_fft:inPointer <- %R6
	@DEBUG_VALUE: process_fft:outBuffer <- %R10
	@DEBUG_VALUE: process_fft:inBuffer <- %R8
	.loc	1 160 2 is_stmt 0 discriminator 1 @ /root/Bela/projects/Autotune/render.cpp:160:2
	add	r4, r9, #20
	mov	r0, r4
	bl	__cxa_guard_acquire
	cmp	r0, #0
	beq	.LBB6_24
.Ltmp432:
@ BB#22:
	@DEBUG_VALUE: process_fft:inPointer <- %R6
	@DEBUG_VALUE: process_fft:outBuffer <- %R10
	@DEBUG_VALUE: process_fft:inBuffer <- %R8
	@DEBUG_VALUE: vector:__n <- 513
	@DEBUG_VALUE: _Vector_base:__n <- 513
	mov	r0, #0
.Ltmp433:
	@DEBUG_VALUE: allocate:__n <- 513
	@DEBUG_VALUE: allocate:__n <- 513
	@DEBUG_VALUE: _M_allocate:__n <- 513
	@DEBUG_VALUE: _M_create_storage:__n <- 513
	.loc	10 91 25 is_stmt 1      @ /usr/bin/../lib/gcc/arm-linux-gnueabihf/6.3.0/../../../../include/c++/6.3.0/bits/stl_vector.h:91:25
	str	r0, [r9, #100]
	.loc	10 91 37 is_stmt 0      @ /usr/bin/../lib/gcc/arm-linux-gnueabihf/6.3.0/../../../../include/c++/6.3.0/bits/stl_vector.h:91:37
	str	r0, [r9, #104]
	.loc	10 91 50                @ /usr/bin/../lib/gcc/arm-linux-gnueabihf/6.3.0/../../../../include/c++/6.3.0/bits/stl_vector.h:91:50
	str	r0, [r9, #108]
.Ltmp434:
	.loc	6 104 27 is_stmt 1      @ /usr/bin/../lib/gcc/arm-linux-gnueabihf/6.3.0/../../../../include/c++/6.3.0/ext/new_allocator.h:104:27
.Ltmp322:
	movw	r0, #2052
	movw	r5, #2052
	bl	_Znwj
.Ltmp323:
.Ltmp435:
@ BB#23:
	@DEBUG_VALUE: process_fft:inPointer <- %R6
	@DEBUG_VALUE: process_fft:outBuffer <- %R10
	@DEBUG_VALUE: process_fft:inBuffer <- %R8
	.loc	10 185 25               @ /usr/bin/../lib/gcc/arm-linux-gnueabihf/6.3.0/../../../../include/c++/6.3.0/bits/stl_vector.h:185:25
	mov	r4, r9
.Ltmp436:
	.loc	59 754 11               @ /usr/bin/../lib/gcc/arm-linux-gnueabihf/6.3.0/../../../../include/c++/6.3.0/bits/stl_algobase.h:754:11
	mov	r1, #0
.Ltmp437:
	.loc	10 185 25               @ /usr/bin/../lib/gcc/arm-linux-gnueabihf/6.3.0/../../../../include/c++/6.3.0/bits/stl_vector.h:185:25
	str	r0, [r4, #100]!
.Ltmp438:
	@DEBUG_VALUE: _M_default_initialize:this <- %R4
	@DEBUG_VALUE: vector:this <- %R4
	.loc	59 754 11               @ /usr/bin/../lib/gcc/arm-linux-gnueabihf/6.3.0/../../../../include/c++/6.3.0/bits/stl_algobase.h:754:11
	movw	r2, #2052
.Ltmp439:
	.loc	10 187 59               @ /usr/bin/../lib/gcc/arm-linux-gnueabihf/6.3.0/../../../../include/c++/6.3.0/bits/stl_vector.h:187:59
	add	r5, r0, r5
	.loc	10 187 34 is_stmt 0     @ /usr/bin/../lib/gcc/arm-linux-gnueabihf/6.3.0/../../../../include/c++/6.3.0/bits/stl_vector.h:187:34
	str	r5, [r4, #8]
.Ltmp440:
	@DEBUG_VALUE: __niter <- 513
	@DEBUG_VALUE: __fill_n_a<float *, unsigned int, float>:__n <- 513
	@DEBUG_VALUE: fill_n<float *, unsigned int, float>:__n <- 513
	@DEBUG_VALUE: __uninit_default_n<float *, unsigned int>:__n <- 513
	@DEBUG_VALUE: __uninitialized_default_n<float *, unsigned int>:__assignable <- 1
	@DEBUG_VALUE: __uninitialized_default_n<float *, unsigned int>:__n <- 513
	@DEBUG_VALUE: __uninitialized_default_n_a<float *, unsigned int, float>:__n <- 513
	@DEBUG_VALUE: _M_default_initialize:__n <- 513
	.loc	59 754 11 is_stmt 1     @ /usr/bin/../lib/gcc/arm-linux-gnueabihf/6.3.0/../../../../include/c++/6.3.0/bits/stl_algobase.h:754:11
	bl	memset
.Ltmp441:
	.loc	1 160 2 discriminator 7 @ /root/Bela/projects/Autotune/render.cpp:160:2
	movw	r0, :lower16:_ZNSt6vectorIfSaIfEED2Ev
	movw	r2, :lower16:__dso_handle
	movt	r0, :upper16:_ZNSt6vectorIfSaIfEED2Ev
	movt	r2, :upper16:__dso_handle
	mov	r1, r4
.Ltmp442:
	.loc	10 1308 26              @ /usr/bin/../lib/gcc/arm-linux-gnueabihf/6.3.0/../../../../include/c++/6.3.0/bits/stl_vector.h:1308:26
	str	r5, [r4, #4]
.Ltmp443:
	.loc	1 160 2 discriminator 7 @ /root/Bela/projects/Autotune/render.cpp:160:2
	bl	__cxa_atexit
	.loc	1 160 2 is_stmt 0 discriminator 8 @ /root/Bela/projects/Autotune/render.cpp:160:2
	sub	r0, r4, #80
	bl	__cxa_guard_release
.Ltmp444:
.LBB6_24:
	@DEBUG_VALUE: process_fft:inPointer <- %R6
	@DEBUG_VALUE: process_fft:outBuffer <- %R10
	@DEBUG_VALUE: process_fft:inBuffer <- %R8
	.loc	1 161 2 is_stmt 1       @ /root/Bela/projects/Autotune/render.cpp:161:2
	ldrb	r0, [r9, #24]
	dmb	ish
	tst	r0, #1
	bne	.LBB6_28
.Ltmp445:
@ BB#25:
	@DEBUG_VALUE: process_fft:inPointer <- %R6
	@DEBUG_VALUE: process_fft:outBuffer <- %R10
	@DEBUG_VALUE: process_fft:inBuffer <- %R8
	.loc	1 161 2 is_stmt 0 discriminator 1 @ /root/Bela/projects/Autotune/render.cpp:161:2
	add	r4, r9, #24
	mov	r0, r4
	bl	__cxa_guard_acquire
	cmp	r0, #0
	beq	.LBB6_28
.Ltmp446:
@ BB#26:
	@DEBUG_VALUE: process_fft:inPointer <- %R6
	@DEBUG_VALUE: process_fft:outBuffer <- %R10
	@DEBUG_VALUE: process_fft:inBuffer <- %R8
	@DEBUG_VALUE: vector:__n <- 513
	@DEBUG_VALUE: _Vector_base:__n <- 513
	mov	r0, #0
.Ltmp447:
	@DEBUG_VALUE: allocate:__n <- 513
	@DEBUG_VALUE: allocate:__n <- 513
	@DEBUG_VALUE: _M_allocate:__n <- 513
	@DEBUG_VALUE: _M_create_storage:__n <- 513
	.loc	10 91 25 is_stmt 1      @ /usr/bin/../lib/gcc/arm-linux-gnueabihf/6.3.0/../../../../include/c++/6.3.0/bits/stl_vector.h:91:25
	str	r0, [r9, #112]
	.loc	10 91 37 is_stmt 0      @ /usr/bin/../lib/gcc/arm-linux-gnueabihf/6.3.0/../../../../include/c++/6.3.0/bits/stl_vector.h:91:37
	str	r0, [r9, #116]
	.loc	10 91 50                @ /usr/bin/../lib/gcc/arm-linux-gnueabihf/6.3.0/../../../../include/c++/6.3.0/bits/stl_vector.h:91:50
	str	r0, [r9, #120]
.Ltmp448:
	.loc	6 104 27 is_stmt 1      @ /usr/bin/../lib/gcc/arm-linux-gnueabihf/6.3.0/../../../../include/c++/6.3.0/ext/new_allocator.h:104:27
.Ltmp325:
	movw	r0, #2052
	movw	r5, #2052
	bl	_Znwj
.Ltmp326:
.Ltmp449:
@ BB#27:
	@DEBUG_VALUE: process_fft:inPointer <- %R6
	@DEBUG_VALUE: process_fft:outBuffer <- %R10
	@DEBUG_VALUE: process_fft:inBuffer <- %R8
	.loc	10 185 25               @ /usr/bin/../lib/gcc/arm-linux-gnueabihf/6.3.0/../../../../include/c++/6.3.0/bits/stl_vector.h:185:25
	mov	r4, r9
.Ltmp450:
	.loc	59 754 11               @ /usr/bin/../lib/gcc/arm-linux-gnueabihf/6.3.0/../../../../include/c++/6.3.0/bits/stl_algobase.h:754:11
	mov	r1, #0
.Ltmp451:
	.loc	10 185 25               @ /usr/bin/../lib/gcc/arm-linux-gnueabihf/6.3.0/../../../../include/c++/6.3.0/bits/stl_vector.h:185:25
	str	r0, [r4, #112]!
.Ltmp452:
	@DEBUG_VALUE: _M_default_initialize:this <- %R4
	@DEBUG_VALUE: vector:this <- %R4
	.loc	59 754 11               @ /usr/bin/../lib/gcc/arm-linux-gnueabihf/6.3.0/../../../../include/c++/6.3.0/bits/stl_algobase.h:754:11
	movw	r2, #2052
.Ltmp453:
	.loc	10 187 59               @ /usr/bin/../lib/gcc/arm-linux-gnueabihf/6.3.0/../../../../include/c++/6.3.0/bits/stl_vector.h:187:59
	add	r5, r0, r5
	.loc	10 187 34 is_stmt 0     @ /usr/bin/../lib/gcc/arm-linux-gnueabihf/6.3.0/../../../../include/c++/6.3.0/bits/stl_vector.h:187:34
	str	r5, [r4, #8]
.Ltmp454:
	@DEBUG_VALUE: __niter <- 513
	@DEBUG_VALUE: __fill_n_a<float *, unsigned int, float>:__n <- 513
	@DEBUG_VALUE: fill_n<float *, unsigned int, float>:__n <- 513
	@DEBUG_VALUE: __uninit_default_n<float *, unsigned int>:__n <- 513
	@DEBUG_VALUE: __uninitialized_default_n<float *, unsigned int>:__assignable <- 1
	@DEBUG_VALUE: __uninitialized_default_n<float *, unsigned int>:__n <- 513
	@DEBUG_VALUE: __uninitialized_default_n_a<float *, unsigned int, float>:__n <- 513
	@DEBUG_VALUE: _M_default_initialize:__n <- 513
	.loc	59 754 11 is_stmt 1     @ /usr/bin/../lib/gcc/arm-linux-gnueabihf/6.3.0/../../../../include/c++/6.3.0/bits/stl_algobase.h:754:11
	bl	memset
.Ltmp455:
	.loc	1 161 2 discriminator 7 @ /root/Bela/projects/Autotune/render.cpp:161:2
	movw	r0, :lower16:_ZNSt6vectorIfSaIfEED2Ev
	movw	r2, :lower16:__dso_handle
	movt	r0, :upper16:_ZNSt6vectorIfSaIfEED2Ev
	movt	r2, :upper16:__dso_handle
	mov	r1, r4
.Ltmp456:
	.loc	10 1308 26              @ /usr/bin/../lib/gcc/arm-linux-gnueabihf/6.3.0/../../../../include/c++/6.3.0/bits/stl_vector.h:1308:26
	str	r5, [r4, #4]
.Ltmp457:
	.loc	1 161 2 discriminator 7 @ /root/Bela/projects/Autotune/render.cpp:161:2
	bl	__cxa_atexit
	.loc	1 161 2 is_stmt 0 discriminator 8 @ /root/Bela/projects/Autotune/render.cpp:161:2
	sub	r0, r4, #88
	bl	__cxa_guard_release
.Ltmp458:
.LBB6_28:
	@DEBUG_VALUE: process_fft:inPointer <- %R6
	@DEBUG_VALUE: process_fft:outBuffer <- %R10
	@DEBUG_VALUE: process_fft:inBuffer <- %R8
	.loc	1 162 2 is_stmt 1       @ /root/Bela/projects/Autotune/render.cpp:162:2
	ldrb	r0, [r9, #28]
	dmb	ish
	tst	r0, #1
	bne	.LBB6_32
.Ltmp459:
@ BB#29:
	@DEBUG_VALUE: process_fft:inPointer <- %R6
	@DEBUG_VALUE: process_fft:outBuffer <- %R10
	@DEBUG_VALUE: process_fft:inBuffer <- %R8
	.loc	1 162 2 is_stmt 0 discriminator 1 @ /root/Bela/projects/Autotune/render.cpp:162:2
	add	r4, r9, #28
	mov	r0, r4
	bl	__cxa_guard_acquire
	cmp	r0, #0
	beq	.LBB6_32
.Ltmp460:
@ BB#30:
	@DEBUG_VALUE: process_fft:inPointer <- %R6
	@DEBUG_VALUE: process_fft:outBuffer <- %R10
	@DEBUG_VALUE: process_fft:inBuffer <- %R8
	@DEBUG_VALUE: vector:__n <- 513
	@DEBUG_VALUE: _Vector_base:__n <- 513
	.loc	10 91 25 is_stmt 1      @ /usr/bin/../lib/gcc/arm-linux-gnueabihf/6.3.0/../../../../include/c++/6.3.0/bits/stl_vector.h:91:25
	movw	r5, :lower16:.L_MergedGlobals.4
	mov	r0, #0
.Ltmp461:
	@DEBUG_VALUE: allocate:__n <- 513
	@DEBUG_VALUE: allocate:__n <- 513
	@DEBUG_VALUE: _M_allocate:__n <- 513
	@DEBUG_VALUE: _M_create_storage:__n <- 513
	movt	r5, :upper16:.L_MergedGlobals.4
	str	r0, [r5]
	.loc	10 91 37 is_stmt 0      @ /usr/bin/../lib/gcc/arm-linux-gnueabihf/6.3.0/../../../../include/c++/6.3.0/bits/stl_vector.h:91:37
	str	r0, [r5, #4]
	.loc	10 91 50                @ /usr/bin/../lib/gcc/arm-linux-gnueabihf/6.3.0/../../../../include/c++/6.3.0/bits/stl_vector.h:91:50
	str	r0, [r5, #8]
.Ltmp462:
	.loc	6 104 27 is_stmt 1      @ /usr/bin/../lib/gcc/arm-linux-gnueabihf/6.3.0/../../../../include/c++/6.3.0/ext/new_allocator.h:104:27
.Ltmp328:
	movw	r0, #2052
	movw	r7, #2052
	bl	_Znwj
.Ltmp329:
.Ltmp463:
@ BB#31:
	@DEBUG_VALUE: process_fft:inPointer <- %R6
	@DEBUG_VALUE: process_fft:outBuffer <- %R10
	@DEBUG_VALUE: process_fft:inBuffer <- %R8
	.loc	59 754 11               @ /usr/bin/../lib/gcc/arm-linux-gnueabihf/6.3.0/../../../../include/c++/6.3.0/bits/stl_algobase.h:754:11
	mov	r1, #0
	movw	r2, #2052
.Ltmp464:
	.loc	10 185 25               @ /usr/bin/../lib/gcc/arm-linux-gnueabihf/6.3.0/../../../../include/c++/6.3.0/bits/stl_vector.h:185:25
	str	r0, [r5]
	.loc	10 187 59               @ /usr/bin/../lib/gcc/arm-linux-gnueabihf/6.3.0/../../../../include/c++/6.3.0/bits/stl_vector.h:187:59
	add	r7, r0, r7
	.loc	10 187 34 is_stmt 0     @ /usr/bin/../lib/gcc/arm-linux-gnueabihf/6.3.0/../../../../include/c++/6.3.0/bits/stl_vector.h:187:34
	str	r7, [r5, #8]
.Ltmp465:
	@DEBUG_VALUE: __niter <- 513
	@DEBUG_VALUE: __fill_n_a<float *, unsigned int, float>:__n <- 513
	@DEBUG_VALUE: fill_n<float *, unsigned int, float>:__n <- 513
	@DEBUG_VALUE: __uninit_default_n<float *, unsigned int>:__n <- 513
	@DEBUG_VALUE: __uninitialized_default_n<float *, unsigned int>:__assignable <- 1
	@DEBUG_VALUE: __uninitialized_default_n<float *, unsigned int>:__n <- 513
	@DEBUG_VALUE: __uninitialized_default_n_a<float *, unsigned int, float>:__n <- 513
	@DEBUG_VALUE: _M_default_initialize:__n <- 513
	.loc	59 754 11 is_stmt 1     @ /usr/bin/../lib/gcc/arm-linux-gnueabihf/6.3.0/../../../../include/c++/6.3.0/bits/stl_algobase.h:754:11
	bl	memset
.Ltmp466:
	.loc	1 162 2 discriminator 7 @ /root/Bela/projects/Autotune/render.cpp:162:2
	movw	r0, :lower16:_ZNSt6vectorIfSaIfEED2Ev
	movw	r2, :lower16:__dso_handle
	movt	r0, :upper16:_ZNSt6vectorIfSaIfEED2Ev
	movt	r2, :upper16:__dso_handle
	mov	r1, r5
.Ltmp467:
	.loc	10 1308 26              @ /usr/bin/../lib/gcc/arm-linux-gnueabihf/6.3.0/../../../../include/c++/6.3.0/bits/stl_vector.h:1308:26
	str	r7, [r5, #4]
.Ltmp468:
	.loc	1 162 2 discriminator 7 @ /root/Bela/projects/Autotune/render.cpp:162:2
	bl	__cxa_atexit
	.loc	1 162 2 is_stmt 0 discriminator 8 @ /root/Bela/projects/Autotune/render.cpp:162:2
	mov	r0, r4
	bl	__cxa_guard_release
.Ltmp469:
.LBB6_32:
	@DEBUG_VALUE: process_fft:inPointer <- %R6
	@DEBUG_VALUE: process_fft:outBuffer <- %R10
	@DEBUG_VALUE: process_fft:inBuffer <- %R8
	.loc	1 163 2 is_stmt 1       @ /root/Bela/projects/Autotune/render.cpp:163:2
	ldrb	r0, [r9, #32]
	dmb	ish
	tst	r0, #1
	bne	.LBB6_36
.Ltmp470:
@ BB#33:
	@DEBUG_VALUE: process_fft:inPointer <- %R6
	@DEBUG_VALUE: process_fft:outBuffer <- %R10
	@DEBUG_VALUE: process_fft:inBuffer <- %R8
	.loc	1 163 2 is_stmt 0 discriminator 1 @ /root/Bela/projects/Autotune/render.cpp:163:2
	add	r4, r9, #32
	mov	r0, r4
	bl	__cxa_guard_acquire
	cmp	r0, #0
	beq	.LBB6_36
.Ltmp471:
@ BB#34:
	@DEBUG_VALUE: process_fft:inPointer <- %R6
	@DEBUG_VALUE: process_fft:outBuffer <- %R10
	@DEBUG_VALUE: process_fft:inBuffer <- %R8
	@DEBUG_VALUE: vector:__n <- 513
	@DEBUG_VALUE: _Vector_base:__n <- 513
	.loc	10 91 25 is_stmt 1      @ /usr/bin/../lib/gcc/arm-linux-gnueabihf/6.3.0/../../../../include/c++/6.3.0/bits/stl_vector.h:91:25
	movw	r5, :lower16:.L_MergedGlobals.4
	mov	r0, #0
.Ltmp472:
	@DEBUG_VALUE: allocate:__n <- 513
	@DEBUG_VALUE: allocate:__n <- 513
	@DEBUG_VALUE: _M_allocate:__n <- 513
	@DEBUG_VALUE: _M_create_storage:__n <- 513
	movt	r5, :upper16:.L_MergedGlobals.4
	str	r0, [r5, #12]
	.loc	10 91 37 is_stmt 0      @ /usr/bin/../lib/gcc/arm-linux-gnueabihf/6.3.0/../../../../include/c++/6.3.0/bits/stl_vector.h:91:37
	str	r0, [r5, #16]
	.loc	10 91 50                @ /usr/bin/../lib/gcc/arm-linux-gnueabihf/6.3.0/../../../../include/c++/6.3.0/bits/stl_vector.h:91:50
	str	r0, [r5, #20]
.Ltmp473:
	.loc	6 104 27 is_stmt 1      @ /usr/bin/../lib/gcc/arm-linux-gnueabihf/6.3.0/../../../../include/c++/6.3.0/ext/new_allocator.h:104:27
.Ltmp331:
	movw	r0, #2052
	movw	r7, #2052
	bl	_Znwj
.Ltmp332:
.Ltmp474:
@ BB#35:
	@DEBUG_VALUE: process_fft:inPointer <- %R6
	@DEBUG_VALUE: process_fft:outBuffer <- %R10
	@DEBUG_VALUE: process_fft:inBuffer <- %R8
	.loc	10 185 25               @ /usr/bin/../lib/gcc/arm-linux-gnueabihf/6.3.0/../../../../include/c++/6.3.0/bits/stl_vector.h:185:25
	str	r0, [r5, #12]!
.Ltmp475:
	@DEBUG_VALUE: _M_default_initialize:this <- %R5
	@DEBUG_VALUE: vector:this <- %R5
	.loc	59 754 11               @ /usr/bin/../lib/gcc/arm-linux-gnueabihf/6.3.0/../../../../include/c++/6.3.0/bits/stl_algobase.h:754:11
	mov	r1, #0
	movw	r2, #2052
.Ltmp476:
	.loc	10 187 59               @ /usr/bin/../lib/gcc/arm-linux-gnueabihf/6.3.0/../../../../include/c++/6.3.0/bits/stl_vector.h:187:59
	add	r7, r0, r7
	.loc	10 187 34 is_stmt 0     @ /usr/bin/../lib/gcc/arm-linux-gnueabihf/6.3.0/../../../../include/c++/6.3.0/bits/stl_vector.h:187:34
	str	r7, [r5, #8]
.Ltmp477:
	@DEBUG_VALUE: __niter <- 513
	@DEBUG_VALUE: __fill_n_a<float *, unsigned int, float>:__n <- 513
	@DEBUG_VALUE: fill_n<float *, unsigned int, float>:__n <- 513
	@DEBUG_VALUE: __uninit_default_n<float *, unsigned int>:__n <- 513
	@DEBUG_VALUE: __uninitialized_default_n<float *, unsigned int>:__assignable <- 1
	@DEBUG_VALUE: __uninitialized_default_n<float *, unsigned int>:__n <- 513
	@DEBUG_VALUE: __uninitialized_default_n_a<float *, unsigned int, float>:__n <- 513
	@DEBUG_VALUE: _M_default_initialize:__n <- 513
	.loc	59 754 11 is_stmt 1     @ /usr/bin/../lib/gcc/arm-linux-gnueabihf/6.3.0/../../../../include/c++/6.3.0/bits/stl_algobase.h:754:11
	bl	memset
.Ltmp478:
	.loc	1 163 2 discriminator 7 @ /root/Bela/projects/Autotune/render.cpp:163:2
	movw	r0, :lower16:_ZNSt6vectorIfSaIfEED2Ev
	movw	r2, :lower16:__dso_handle
	movt	r0, :upper16:_ZNSt6vectorIfSaIfEED2Ev
	movt	r2, :upper16:__dso_handle
	mov	r1, r5
.Ltmp479:
	.loc	10 1308 26              @ /usr/bin/../lib/gcc/arm-linux-gnueabihf/6.3.0/../../../../include/c++/6.3.0/bits/stl_vector.h:1308:26
	str	r7, [r5, #4]
.Ltmp480:
	.loc	1 163 2 discriminator 7 @ /root/Bela/projects/Autotune/render.cpp:163:2
	bl	__cxa_atexit
	.loc	1 163 2 is_stmt 0 discriminator 8 @ /root/Bela/projects/Autotune/render.cpp:163:2
	mov	r0, r4
	bl	__cxa_guard_release
.Ltmp481:
.LBB6_36:
	@DEBUG_VALUE: process_fft:inPointer <- %R6
	@DEBUG_VALUE: process_fft:outBuffer <- %R10
	@DEBUG_VALUE: process_fft:inBuffer <- %R8
	.loc	1 164 2 is_stmt 1       @ /root/Bela/projects/Autotune/render.cpp:164:2
	ldrb	r0, [r9, #36]
	dmb	ish
	tst	r0, #1
	bne	.LBB6_40
.Ltmp482:
@ BB#37:
	@DEBUG_VALUE: process_fft:inPointer <- %R6
	@DEBUG_VALUE: process_fft:outBuffer <- %R10
	@DEBUG_VALUE: process_fft:inBuffer <- %R8
	.loc	1 164 2 is_stmt 0 discriminator 1 @ /root/Bela/projects/Autotune/render.cpp:164:2
	add	r4, r9, #36
	mov	r0, r4
	bl	__cxa_guard_acquire
	cmp	r0, #0
	beq	.LBB6_40
.Ltmp483:
@ BB#38:
	@DEBUG_VALUE: process_fft:inPointer <- %R6
	@DEBUG_VALUE: process_fft:outBuffer <- %R10
	@DEBUG_VALUE: process_fft:inBuffer <- %R8
	@DEBUG_VALUE: vector:__n <- 513
	@DEBUG_VALUE: _Vector_base:__n <- 513
	.loc	10 91 25 is_stmt 1      @ /usr/bin/../lib/gcc/arm-linux-gnueabihf/6.3.0/../../../../include/c++/6.3.0/bits/stl_vector.h:91:25
	movw	r5, :lower16:.L_MergedGlobals.4
	mov	r0, #0
.Ltmp484:
	@DEBUG_VALUE: allocate:__n <- 513
	@DEBUG_VALUE: allocate:__n <- 513
	@DEBUG_VALUE: _M_allocate:__n <- 513
	@DEBUG_VALUE: _M_create_storage:__n <- 513
	movt	r5, :upper16:.L_MergedGlobals.4
	str	r0, [r5, #24]
	.loc	10 91 37 is_stmt 0      @ /usr/bin/../lib/gcc/arm-linux-gnueabihf/6.3.0/../../../../include/c++/6.3.0/bits/stl_vector.h:91:37
	str	r0, [r5, #28]
	.loc	10 91 50                @ /usr/bin/../lib/gcc/arm-linux-gnueabihf/6.3.0/../../../../include/c++/6.3.0/bits/stl_vector.h:91:50
	str	r0, [r5, #32]
.Ltmp485:
	.loc	6 104 27 is_stmt 1      @ /usr/bin/../lib/gcc/arm-linux-gnueabihf/6.3.0/../../../../include/c++/6.3.0/ext/new_allocator.h:104:27
.Ltmp334:
	movw	r0, #2052
	movw	r7, #2052
	bl	_Znwj
.Ltmp335:
.Ltmp486:
@ BB#39:
	@DEBUG_VALUE: process_fft:inPointer <- %R6
	@DEBUG_VALUE: process_fft:outBuffer <- %R10
	@DEBUG_VALUE: process_fft:inBuffer <- %R8
	.loc	10 185 25               @ /usr/bin/../lib/gcc/arm-linux-gnueabihf/6.3.0/../../../../include/c++/6.3.0/bits/stl_vector.h:185:25
	str	r0, [r5, #24]!
.Ltmp487:
	@DEBUG_VALUE: _M_default_initialize:this <- %R5
	@DEBUG_VALUE: vector:this <- %R5
	.loc	59 754 11               @ /usr/bin/../lib/gcc/arm-linux-gnueabihf/6.3.0/../../../../include/c++/6.3.0/bits/stl_algobase.h:754:11
	mov	r1, #0
	movw	r2, #2052
.Ltmp488:
	.loc	10 187 59               @ /usr/bin/../lib/gcc/arm-linux-gnueabihf/6.3.0/../../../../include/c++/6.3.0/bits/stl_vector.h:187:59
	add	r7, r0, r7
	.loc	10 187 34 is_stmt 0     @ /usr/bin/../lib/gcc/arm-linux-gnueabihf/6.3.0/../../../../include/c++/6.3.0/bits/stl_vector.h:187:34
	str	r7, [r5, #8]
.Ltmp489:
	@DEBUG_VALUE: __niter <- 513
	@DEBUG_VALUE: __fill_n_a<float *, unsigned int, float>:__n <- 513
	@DEBUG_VALUE: fill_n<float *, unsigned int, float>:__n <- 513
	@DEBUG_VALUE: __uninit_default_n<float *, unsigned int>:__n <- 513
	@DEBUG_VALUE: __uninitialized_default_n<float *, unsigned int>:__assignable <- 1
	@DEBUG_VALUE: __uninitialized_default_n<float *, unsigned int>:__n <- 513
	@DEBUG_VALUE: __uninitialized_default_n_a<float *, unsigned int, float>:__n <- 513
	@DEBUG_VALUE: _M_default_initialize:__n <- 513
	.loc	59 754 11 is_stmt 1     @ /usr/bin/../lib/gcc/arm-linux-gnueabihf/6.3.0/../../../../include/c++/6.3.0/bits/stl_algobase.h:754:11
	bl	memset
.Ltmp490:
	.loc	1 164 2 discriminator 7 @ /root/Bela/projects/Autotune/render.cpp:164:2
	movw	r0, :lower16:_ZNSt6vectorIfSaIfEED2Ev
	movw	r2, :lower16:__dso_handle
	movt	r0, :upper16:_ZNSt6vectorIfSaIfEED2Ev
	movt	r2, :upper16:__dso_handle
	mov	r1, r5
.Ltmp491:
	.loc	10 1308 26              @ /usr/bin/../lib/gcc/arm-linux-gnueabihf/6.3.0/../../../../include/c++/6.3.0/bits/stl_vector.h:1308:26
	str	r7, [r5, #4]
.Ltmp492:
	.loc	1 164 2 discriminator 7 @ /root/Bela/projects/Autotune/render.cpp:164:2
	bl	__cxa_atexit
	.loc	1 164 2 is_stmt 0 discriminator 8 @ /root/Bela/projects/Autotune/render.cpp:164:2
	mov	r0, r4
	bl	__cxa_guard_release
.Ltmp493:
.LBB6_40:                               @ %.preheader240
	@DEBUG_VALUE: process_fft:inPointer <- %R6
	@DEBUG_VALUE: process_fft:outBuffer <- %R10
	@DEBUG_VALUE: process_fft:inBuffer <- %R8
	.loc	10 781 32 is_stmt 1     @ /usr/bin/../lib/gcc/arm-linux-gnueabihf/6.3.0/../../../../include/c++/6.3.0/bits/stl_vector.h:781:32
	movw	r2, :lower16:.L_MergedGlobals
	str	r10, [sp, #4]           @ 4-byte Spill
	movt	r2, :upper16:.L_MergedGlobals
.Ltmp494:
	.loc	10 796 32               @ /usr/bin/../lib/gcc/arm-linux-gnueabihf/6.3.0/../../../../include/c++/6.3.0/bits/stl_vector.h:796:32
	ldr	r0, [r8]
.Ltmp495:
	.loc	10 781 32               @ /usr/bin/../lib/gcc/arm-linux-gnueabihf/6.3.0/../../../../include/c++/6.3.0/bits/stl_vector.h:781:32
	ldr	r1, [r9, #40]
.Ltmp496:
	.loc	1 167 2 discriminator 1 @ /root/Bela/projects/Autotune/render.cpp:167:2
	add	r7, r6, #15360
.Ltmp497:
	.loc	10 781 32               @ /usr/bin/../lib/gcc/arm-linux-gnueabihf/6.3.0/../../../../include/c++/6.3.0/bits/stl_vector.h:781:32
	ldr	r2, [r2, #100]
	mov	r3, #0
.Ltmp498:
.LBB6_41:                               @ =>This Inner Loop Header: Depth=1
	.loc	1 167 2 discriminator 1 @ /root/Bela/projects/Autotune/render.cpp:167:2
	add	r5, r7, #1
.Ltmp499:
	.loc	1 169 70                @ /root/Bela/projects/Autotune/render.cpp:169:70
	bfc	r7, #14, #18
.Ltmp500:
	@DEBUG_VALUE: operator[]:__n <- %R7
	@DEBUG_VALUE: circularBufferIndex <- %R7
	.loc	1 170 56                @ /root/Bela/projects/Autotune/render.cpp:170:56
	add	r6, r2, r3
.Ltmp501:
	.loc	10 796 41               @ /usr/bin/../lib/gcc/arm-linux-gnueabihf/6.3.0/../../../../include/c++/6.3.0/bits/stl_vector.h:796:41
	add	r7, r0, r7, lsl #2
.Ltmp502:
	.loc	1 170 56                @ /root/Bela/projects/Autotune/render.cpp:170:56
	vldr	s0, [r6]
	.loc	1 170 24 is_stmt 0      @ /root/Bela/projects/Autotune/render.cpp:170:24
	vldr	s2, [r7]
	.loc	1 170 22                @ /root/Bela/projects/Autotune/render.cpp:170:22
	add	r7, r1, r3
.Ltmp503:
	.loc	1 167 2 is_stmt 1 discriminator 1 @ /root/Bela/projects/Autotune/render.cpp:167:2
	add	r3, r3, #4
.Ltmp504:
	.loc	1 170 54                @ /root/Bela/projects/Autotune/render.cpp:170:54
	vmul.f32	d0, d0, d1
.Ltmp505:
	.loc	1 167 2 discriminator 1 @ /root/Bela/projects/Autotune/render.cpp:167:2
	cmp	r3, #4096
.Ltmp506:
	.loc	1 170 22                @ /root/Bela/projects/Autotune/render.cpp:170:22
	vstr	s0, [r7]
	mov	r7, r5
	bne	.LBB6_41
.Ltmp507:
@ BB#42:
	.loc	1 174 7                 @ /root/Bela/projects/Autotune/render.cpp:174:7
	movw	r5, :lower16:.L_MergedGlobals.2
	add	r1, r9, #40
.Ltmp508:
	@DEBUG_VALUE: operator[]:this <- %R1
	movt	r5, :upper16:.L_MergedGlobals.2
	mov	r0, r5
	bl	_ZN3Fft3fftERKSt6vectorIfSaIfEE
.Ltmp509:
	.loc	3 30 38                 @ ./libraries/Fft/Fft.h:30:38
	ldr	r10, [r5, #4]
	vmov.i32	d15, #0xc3000000
.Ltmp510:
	.loc	1 194 52                @ /root/Bela/projects/Autotune/render.cpp:194:52
	vmov.f32	d12, #8.000000e+00
.Ltmp511:
	.loc	1 138 16                @ /root/Bela/projects/Autotune/render.cpp:138:16
	vldr	s16, .LCPI6_7
.Ltmp512:
	.loc	1 194 70                @ /root/Bela/projects/Autotune/render.cpp:194:70
	vldr	d13, .LCPI6_8
	mov	r4, #0
.Ltmp513:
	.loc	1 136 16                @ /root/Bela/projects/Autotune/render.cpp:136:16
	vldr	s18, .LCPI6_9
	mov	r6, #4
.Ltmp514:
	@DEBUG_VALUE: n <- 0
	.loc	1 178 2 discriminator 1 @ /root/Bela/projects/Autotune/render.cpp:178:2
	movw	r8, #513
	mov	r7, #0
.LBB6_43:                               @ =>This Inner Loop Header: Depth=1
.Ltmp515:
	.loc	3 39 52                 @ ./libraries/Fft/Fft.h:39:52
	add	r0, r10, r6
	vldr	s0, [r0, #-4]
	.loc	3 39 70 is_stmt 0       @ ./libraries/Fft/Fft.h:39:70
	vldr	s2, [r0]
	.loc	3 39 59                 @ ./libraries/Fft/Fft.h:39:59
	vmul.f32	d16, d0, d0
	.loc	3 39 77                 @ ./libraries/Fft/Fft.h:39:77
	vmul.f32	d17, d1, d1
	.loc	3 39 68                 @ ./libraries/Fft/Fft.h:39:68
	vadd.f32	d0, d17, d16
	.loc	3 39 37 discriminator 4 @ ./libraries/Fft/Fft.h:39:37
                                        @ kill: %S0<def> %S0<kill> %D0<kill>
	bl	sqrtf_neon_hfp
.Ltmp516:
	.loc	1 174 7 is_stmt 1       @ /root/Bela/projects/Autotune/render.cpp:174:7
	movw	r0, :lower16:.L_MergedGlobals.2
.Ltmp517:
	.loc	3 39 37 discriminator 4 @ ./libraries/Fft/Fft.h:39:37
	vmov.f32	s20, s0
.Ltmp518:
	@DEBUG_VALUE: amplitude <- %S20
	.loc	1 174 7                 @ /root/Bela/projects/Autotune/render.cpp:174:7
	movt	r0, :upper16:.L_MergedGlobals.2
.Ltmp519:
	.loc	3 34 38                 @ ./libraries/Fft/Fft.h:34:38
	ldr	r10, [r0, #4]
.Ltmp520:
	.loc	1 181 29                @ /root/Bela/projects/Autotune/render.cpp:181:29
	add	r0, r10, r6
	.loc	1 181 42 is_stmt 0      @ /root/Bela/projects/Autotune/render.cpp:181:42
	vldr	s1, [r0, #-4]
	.loc	1 181 29                @ /root/Bela/projects/Autotune/render.cpp:181:29
	vldr	s0, [r0]
	.loc	1 181 17 discriminator 3 @ /root/Bela/projects/Autotune/render.cpp:181:17
	bl	__atan2f_finite
	vorr	d11, d0, d0
.Ltmp521:
	@DEBUG_VALUE: phase <- %S22
	.loc	1 190 70 is_stmt 1      @ /root/Bela/projects/Autotune/render.cpp:190:70
	vldr	d17, .LCPI6_10
	.loc	1 190 68 is_stmt 0      @ /root/Bela/projects/Autotune/render.cpp:190:68
	vmov	s0, r7
.Ltmp522:
	.loc	10 781 32 is_stmt 1     @ /usr/bin/../lib/gcc/arm-linux-gnueabihf/6.3.0/../../../../include/c++/6.3.0/bits/stl_vector.h:781:32
	ldr	r0, [r9, #52]
.Ltmp523:
	.loc	1 190 68                @ /root/Bela/projects/Autotune/render.cpp:190:68
	vcvt.f32.s32	d14, d0
	.loc	1 185 29                @ /root/Bela/projects/Autotune/render.cpp:185:29
	add	r5, r0, r4
	vldr	s2, [r5]
	.loc	1 190 61                @ /root/Bela/projects/Autotune/render.cpp:190:61
	vcvt.f64.f32	d16, s28
	.loc	1 190 70 is_stmt 0      @ /root/Bela/projects/Autotune/render.cpp:190:70
	vmul.f64	d16, d16, d17
	.loc	1 190 30                @ /root/Bela/projects/Autotune/render.cpp:190:30
	vcvt.f32.f64	s0, d16
.Ltmp524:
	@DEBUG_VALUE: binCentreFrequency <- %S0
	.loc	1 185 27 is_stmt 1      @ /root/Bela/projects/Autotune/render.cpp:185:27
	vsub.f32	d16, d11, d1
	vmul.f32	d17, d0, d15
.Ltmp525:
	@DEBUG_VALUE: phaseDiff <- undef
	.loc	1 191 35                @ /root/Bela/projects/Autotune/render.cpp:191:35
	vadd.f32	d0, d16, d17
.Ltmp526:
	@DEBUG_VALUE: wrapPhase:phaseIn <- %S0
	.loc	1 136 22                @ /root/Bela/projects/Autotune/render.cpp:136:22
	vcvt.f64.f32	d16, s0
.Ltmp527:
	.loc	1 135 9                 @ /root/Bela/projects/Autotune/render.cpp:135:9
	vcmpe.f32	s0, #0
	vmrs	APSR_nzcv, fpscr
.Ltmp528:
	@DEBUG_VALUE: fda:n <- %R7
	bge	.LBB6_45
.Ltmp529:
@ BB#44:                                @   in Loop: Header=BB6_43 Depth=1
	@DEBUG_VALUE: fda:n <- %R7
	@DEBUG_VALUE: wrapPhase:phaseIn <- %S0
	@DEBUG_VALUE: phase <- %S22
	@DEBUG_VALUE: amplitude <- %S20
	.loc	1 138 30                @ /root/Bela/projects/Autotune/render.cpp:138:30
	vldr	d17, .LCPI6_11
	.loc	1 138 16 is_stmt 0      @ /root/Bela/projects/Autotune/render.cpp:138:16
	vmov.f32	s1, s16
	.loc	1 138 30                @ /root/Bela/projects/Autotune/render.cpp:138:30
	vadd.f64	d16, d16, d17
	.loc	1 138 22                @ /root/Bela/projects/Autotune/render.cpp:138:22
	vcvt.f32.f64	s0, d16
.Ltmp530:
	.loc	1 138 16                @ /root/Bela/projects/Autotune/render.cpp:138:16
	bl	__fmodf_finite
	vcvt.f64.f32	d16, s0
	.loc	1 138 87                @ /root/Bela/projects/Autotune/render.cpp:138:87
	vldr	d17, .LCPI6_12
	b	.LBB6_46
.Ltmp531:
.LBB6_45:                               @   in Loop: Header=BB6_43 Depth=1
	@DEBUG_VALUE: fda:n <- %R7
	@DEBUG_VALUE: wrapPhase:phaseIn <- %S0
	@DEBUG_VALUE: phase <- %S22
	@DEBUG_VALUE: amplitude <- %S20
	vldr	d17, .LCPI6_12
	.loc	1 136 16 is_stmt 1      @ /root/Bela/projects/Autotune/render.cpp:136:16
	vmov.f32	s1, s18
	.loc	1 136 30 is_stmt 0      @ /root/Bela/projects/Autotune/render.cpp:136:30
	vadd.f64	d16, d16, d17
	.loc	1 136 22                @ /root/Bela/projects/Autotune/render.cpp:136:22
	vcvt.f32.f64	s0, d16
.Ltmp532:
	.loc	1 136 16                @ /root/Bela/projects/Autotune/render.cpp:136:16
	bl	__fmodf_finite
	vcvt.f64.f32	d16, s0
	.loc	1 138 30 is_stmt 1      @ /root/Bela/projects/Autotune/render.cpp:138:30
	vldr	d17, .LCPI6_11
.Ltmp533:
.LBB6_46:                               @ %_Z9wrapPhasef.exit219
                                        @   in Loop: Header=BB6_43 Depth=1
	@DEBUG_VALUE: fda:n <- %R7
	@DEBUG_VALUE: phase <- %S22
	@DEBUG_VALUE: amplitude <- %S20
	.loc	1 138 87 is_stmt 0      @ /root/Bela/projects/Autotune/render.cpp:138:87
	vadd.f64	d16, d16, d17
.Ltmp534:
	.loc	10 781 32 is_stmt 1     @ /usr/bin/../lib/gcc/arm-linux-gnueabihf/6.3.0/../../../../include/c++/6.3.0/bits/stl_vector.h:781:32
	ldr	r0, [r9, #88]
.Ltmp535:
	.loc	1 178 35 discriminator 3 @ /root/Bela/projects/Autotune/render.cpp:178:35
	add	r7, r7, #1
.Ltmp536:
	@DEBUG_VALUE: n <- %R7
	.loc	1 178 2 is_stmt 0 discriminator 1 @ /root/Bela/projects/Autotune/render.cpp:178:2
	add	r6, r6, #8
.Ltmp537:
	.loc	1 197 26 is_stmt 1      @ /root/Bela/projects/Autotune/render.cpp:197:26
	add	r1, r0, r4
.Ltmp538:
	.loc	1 178 2 discriminator 1 @ /root/Bela/projects/Autotune/render.cpp:178:2
	cmp	r7, r8
.Ltmp539:
	.loc	1 136 16                @ /root/Bela/projects/Autotune/render.cpp:136:16
	vcvt.f32.f64	s0, d16
.Ltmp540:
	@DEBUG_VALUE: phaseDiff <- %S0
	.loc	1 194 52                @ /root/Bela/projects/Autotune/render.cpp:194:52
	vmul.f32	d0, d0, d12
.Ltmp541:
	.loc	1 194 24 is_stmt 0      @ /root/Bela/projects/Autotune/render.cpp:194:24
	vcvt.f64.f32	d16, s0
	.loc	1 194 70                @ /root/Bela/projects/Autotune/render.cpp:194:70
	vmul.f64	d16, d16, d13
	.loc	1 194 24                @ /root/Bela/projects/Autotune/render.cpp:194:24
	vcvt.f32.f64	s0, d16
.Ltmp542:
	@DEBUG_VALUE: binDeviation <- %S0
	.loc	1 197 37 is_stmt 1      @ /root/Bela/projects/Autotune/render.cpp:197:37
	vadd.f32	d0, d0, d14
.Ltmp543:
	.loc	1 197 26 is_stmt 0      @ /root/Bela/projects/Autotune/render.cpp:197:26
	vstr	s0, [r1]
.Ltmp544:
	.loc	10 781 32 is_stmt 1     @ /usr/bin/../lib/gcc/arm-linux-gnueabihf/6.3.0/../../../../include/c++/6.3.0/bits/stl_vector.h:781:32
	ldr	r1, [r9, #76]
.Ltmp545:
	.loc	1 200 25                @ /root/Bela/projects/Autotune/render.cpp:200:25
	add	r2, r1, r4
.Ltmp546:
	.loc	1 178 2 discriminator 1 @ /root/Bela/projects/Autotune/render.cpp:178:2
	add	r4, r4, #4
.Ltmp547:
	.loc	1 200 25                @ /root/Bela/projects/Autotune/render.cpp:200:25
	vstr	s20, [r2]
	.loc	1 203 22                @ /root/Bela/projects/Autotune/render.cpp:203:22
	vstr	s22, [r5]
	bne	.LBB6_43
.Ltmp548:
@ BB#47:                                @ %.preheader239
	@DEBUG_VALUE: n <- %R7
	@DEBUG_VALUE: phase <- %S22
	@DEBUG_VALUE: amplitude <- %S20
	.loc	10 781 32               @ /usr/bin/../lib/gcc/arm-linux-gnueabihf/6.3.0/../../../../include/c++/6.3.0/bits/stl_vector.h:781:32
	ldr	r2, [r9, #100]
.Ltmp549:
	.loc	1 207 2 discriminator 1 @ /root/Bela/projects/Autotune/render.cpp:207:2
	movw	r7, #2052
.Ltmp550:
	.loc	10 781 32               @ /usr/bin/../lib/gcc/arm-linux-gnueabihf/6.3.0/../../../../include/c++/6.3.0/bits/stl_vector.h:781:32
	ldr	r3, [r9, #112]
.Ltmp551:
	.loc	1 207 2 discriminator 1 @ /root/Bela/projects/Autotune/render.cpp:207:2
	add	r6, r2, r7
	cmp	r3, r6
	movlo	r6, #0
	addlo	r7, r3, r7
	cmplo	r2, r7
	blo	.LBB6_50
.Ltmp552:
@ BB#48:                                @ %vector.body.preheader
	@DEBUG_VALUE: phase <- %S22
	@DEBUG_VALUE: amplitude <- %S20
	.loc	1 208 52                @ /root/Bela/projects/Autotune/render.cpp:208:52
	vmov.i32	q8, #0x0
	mov	r7, #0
.Ltmp553:
.LBB6_49:                               @ %vector.body
                                        @ =>This Inner Loop Header: Depth=1
	add	r6, r3, r7
	vst1.32	{d16, d17}, [r6]
	.loc	1 208 26 is_stmt 0      @ /root/Bela/projects/Autotune/render.cpp:208:26
	add	r6, r2, r7
.Ltmp554:
	.loc	1 207 2 is_stmt 1 discriminator 1 @ /root/Bela/projects/Autotune/render.cpp:207:2
	add	r7, r7, #16
.Ltmp555:
	.loc	1 208 26                @ /root/Bela/projects/Autotune/render.cpp:208:26
	vst1.32	{d16, d17}, [r6]
	mov	r6, #512
.Ltmp556:
	.loc	1 207 2 discriminator 1 @ /root/Bela/projects/Autotune/render.cpp:207:2
	cmp	r7, #2048
	bne	.LBB6_49
.LBB6_50:                               @ %scalar.ph.preheader
.Ltmp557:
	.loc	10 0 0                  @ /usr/bin/../lib/gcc/arm-linux-gnueabihf/6.3.0/../../../../include/c++/6.3.0/bits/stl_vector.h:0:0
	movw	r7, #513
	add	r3, r3, r6, lsl #2
	add	r2, r2, r6, lsl #2
	sub	r7, r7, r6
	mov	r6, #0
.Ltmp558:
.LBB6_51:                               @ %scalar.ph
                                        @ =>This Inner Loop Header: Depth=1
	.loc	1 208 52                @ /root/Bela/projects/Autotune/render.cpp:208:52
	str	r6, [r3], #4
.Ltmp559:
	.loc	1 207 2 discriminator 1 @ /root/Bela/projects/Autotune/render.cpp:207:2
	subs	r7, r7, #1
.Ltmp560:
	.loc	1 208 26                @ /root/Bela/projects/Autotune/render.cpp:208:26
	str	r6, [r2], #4
	bne	.LBB6_51
.Ltmp561:
@ BB#52:                                @ %.preheader238.preheader
	vmov.i32	d0, #0x0
	mov	r2, #0
	vmov.i32	d2, #0x0
	mov	r7, #0
	vmov.i32	d1, #0x0
	mov	r6, #0
	mov	r3, #0
.LBB6_53:                               @ %.preheader238
                                        @ =>This Inner Loop Header: Depth=1
.Ltmp562:
	.loc	1 220 21                @ /root/Bela/projects/Autotune/render.cpp:220:21
	vldr	s6, [r1]
.Ltmp563:
	@DEBUG_VALUE: mag <- %S6
	@DEBUG_VALUE: amplitude <- %S6
	@DEBUG_VALUE: process_fft:max_1 <- %S6
	.loc	1 222 19                @ /root/Bela/projects/Autotune/render.cpp:222:19
	vcmpe.f32	s6, s0
	vmrs	APSR_nzcv, fpscr
	bge	.LBB6_57
.Ltmp564:
@ BB#54:                                @ %.preheader238
                                        @   in Loop: Header=BB6_53 Depth=1
	@DEBUG_VALUE: process_fft:max_1 <- %S6
	@DEBUG_VALUE: amplitude <- %S6
	@DEBUG_VALUE: mag <- %S6
	vcmpe.f32	s6, s2
	vmrs	APSR_nzcv, fpscr
	ble	.LBB6_57
.Ltmp565:
@ BB#55:                                @ %.preheader238
                                        @   in Loop: Header=BB6_53 Depth=1
	@DEBUG_VALUE: process_fft:max_1 <- %S6
	@DEBUG_VALUE: amplitude <- %S6
	@DEBUG_VALUE: mag <- %S6
	vcmpe.f32	s6, s4
	vmrs	APSR_nzcv, fpscr
	bge	.LBB6_57
.Ltmp566:
@ BB#56:                                @   in Loop: Header=BB6_53 Depth=1
	@DEBUG_VALUE: process_fft:max_1 <- %S6
	@DEBUG_VALUE: amplitude <- %S6
	@DEBUG_VALUE: mag <- %S6
	mov	r6, r3
	vorr	d1, d3, d3
	b	.LBB6_61
.Ltmp567:
.LBB6_57:                               @   in Loop: Header=BB6_53 Depth=1
	@DEBUG_VALUE: process_fft:max_1 <- %S6
	@DEBUG_VALUE: amplitude <- %S6
	@DEBUG_VALUE: mag <- %S6
	.loc	1 226 30 discriminator 1 @ /root/Bela/projects/Autotune/render.cpp:226:30
	vcmpe.f32	s6, s4
	mov	r5, #0
	vmrs	APSR_nzcv, fpscr
	vcmpe.f32	s6, s2
	mov	r4, #0
	movwgt	r5, #1
	vmrs	APSR_nzcv, fpscr
	.loc	1 226 23 is_stmt 0      @ /root/Bela/projects/Autotune/render.cpp:226:23
	vcmpe.f32	s6, s0
	movwgt	r4, #1
	and	r5, r4, r5
	vmrs	APSR_nzcv, fpscr
	bge	.LBB6_60
.Ltmp568:
@ BB#58:                                @   in Loop: Header=BB6_53 Depth=1
	@DEBUG_VALUE: process_fft:max_1 <- %S6
	@DEBUG_VALUE: amplitude <- %S6
	@DEBUG_VALUE: mag <- %S6
	cmp	r5, #0
	beq	.LBB6_60
.Ltmp569:
@ BB#59:                                @   in Loop: Header=BB6_53 Depth=1
	@DEBUG_VALUE: process_fft:max_1 <- %S6
	@DEBUG_VALUE: amplitude <- %S6
	@DEBUG_VALUE: mag <- %S6
	mov	r7, r3
	vorr	d2, d3, d3
	b	.LBB6_61
.Ltmp570:
.LBB6_60:                               @   in Loop: Header=BB6_53 Depth=1
	@DEBUG_VALUE: process_fft:max_1 <- %S6
	@DEBUG_VALUE: amplitude <- %S6
	@DEBUG_VALUE: mag <- %S6
	.loc	1 230 45 is_stmt 1 discriminator 2 @ /root/Bela/projects/Autotune/render.cpp:230:45
	vcmpe.f32	s6, s0
	mov	r4, #0
	vmrs	APSR_nzcv, fpscr
	movwgt	r4, #1
	.loc	1 230 23 is_stmt 0      @ /root/Bela/projects/Autotune/render.cpp:230:23
	ands	r5, r4, r5
.Ltmp571:
	@DEBUG_VALUE: operator[]:__n <- %R3
	vmovne.f32	s0, s6
	movne	r2, r3
.Ltmp572:
.LBB6_61:                               @   in Loop: Header=BB6_53 Depth=1
	@DEBUG_VALUE: process_fft:max_1 <- %S6
	@DEBUG_VALUE: amplitude <- %S6
	@DEBUG_VALUE: mag <- %S6
	.loc	1 219 34 is_stmt 1 discriminator 3 @ /root/Bela/projects/Autotune/render.cpp:219:34
	add	r3, r3, #1
.Ltmp573:
	@DEBUG_VALUE: n <- %R3
	.loc	1 219 2 is_stmt 0 discriminator 1 @ /root/Bela/projects/Autotune/render.cpp:219:2
	add	r1, r1, #4
	cmp	r3, #512
	bne	.LBB6_53
.Ltmp574:
@ BB#62:
	@DEBUG_VALUE: n <- %R3
	@DEBUG_VALUE: process_fft:max_1 <- %S6
	@DEBUG_VALUE: amplitude <- %S6
	@DEBUG_VALUE: mag <- %S6
	@DEBUG_VALUE: process_fft:max_bin_index <- 0
	.loc	1 239 31 is_stmt 1      @ /root/Bela/projects/Autotune/render.cpp:239:31
	cmp	r2, r6
	mov	r3, #0
.Ltmp575:
	movlt	r3, r2
	mov	r1, #0
	cmp	r2, r7
	movge	r3, r1
.Ltmp576:
	.loc	1 242 32                @ /root/Bela/projects/Autotune/render.cpp:242:32
	cmp	r7, r2
	mov	r1, r3
	movlt	r1, r7
	cmp	r7, r6
	movge	r1, r3
.Ltmp577:
	.loc	1 245 32                @ /root/Bela/projects/Autotune/render.cpp:245:32
	cmp	r6, r2
	mov	r2, r1
	movlt	r2, r6
	cmp	r6, r7
	movge	r2, r1
.Ltmp578:
	@DEBUG_VALUE: operator[]:__n <- %R2
	@DEBUG_VALUE: operator[]:__n <- %R2
	.loc	10 781 32               @ /usr/bin/../lib/gcc/arm-linux-gnueabihf/6.3.0/../../../../include/c++/6.3.0/bits/stl_vector.h:781:32
	movw	r1, :lower16:.L_MergedGlobals
.Ltmp579:
	.loc	1 250 21                @ /root/Bela/projects/Autotune/render.cpp:250:21
	ldr	r0, [r0, r2, lsl #2]
.Ltmp580:
	.loc	10 781 32               @ /usr/bin/../lib/gcc/arm-linux-gnueabihf/6.3.0/../../../../include/c++/6.3.0/bits/stl_vector.h:781:32
	movt	r1, :upper16:.L_MergedGlobals
	mov	r4, r1
.Ltmp581:
	.loc	1 250 19                @ /root/Bela/projects/Autotune/render.cpp:250:19
	str	r0, [r4, #32]
	.loc	1 254 31                @ /root/Bela/projects/Autotune/render.cpp:254:31
	vmov	d0, r0, r0
	.loc	1 254 48 is_stmt 0      @ /root/Bela/projects/Autotune/render.cpp:254:48
	ldr	r0, [r4, #8]
	.loc	1 254 31                @ /root/Bela/projects/Autotune/render.cpp:254:31
	vcvt.f64.f32	d0, s0
	.loc	1 254 17 discriminator 1 @ /root/Bela/projects/Autotune/render.cpp:254:17
	bl	_Z13getTargetFreqdi
.Ltmp582:
	mov	r1, r4
.Ltmp583:
	@DEBUG_VALUE: process_fft:target <- %D0
	.loc	1 259 20 is_stmt 1      @ /root/Bela/projects/Autotune/render.cpp:259:20
	vmov.f32	d2, #5.000000e-01
.Ltmp584:
	.loc	1 266 31                @ /root/Bela/projects/Autotune/render.cpp:266:31
	vldr	s2, [r1, #32]
.Ltmp585:
	.loc	1 255 23                @ /root/Bela/projects/Autotune/render.cpp:255:23
	vcvt.f64.f32	d16, s2
	.loc	1 255 22 is_stmt 0      @ /root/Bela/projects/Autotune/render.cpp:255:22
	vdiv.f64	d17, d0, d16
	.loc	1 255 16                @ /root/Bela/projects/Autotune/render.cpp:255:16
	vcvt.f32.f64	s2, d17
	.loc	1 255 14                @ /root/Bela/projects/Autotune/render.cpp:255:14
	vstr	s2, [r1, #4]
.Ltmp586:
	.loc	1 259 6 is_stmt 1       @ /root/Bela/projects/Autotune/render.cpp:259:6
	vldr	s6, [r1, #24]
.Ltmp587:
	.loc	1 259 6 is_stmt 0       @ /root/Bela/projects/Autotune/render.cpp:259:6
	vcmpe.f32	s6, s4
	vmrs	APSR_nzcv, fpscr
	ble	.LBB6_67
.Ltmp588:
@ BB#63:
	@DEBUG_VALUE: process_fft:target <- %D0
	@DEBUG_VALUE: partialtarget <- 0.000000e+00
	.loc	1 262 15 is_stmt 1      @ /root/Bela/projects/Autotune/render.cpp:262:15
	vsub.f64	d17, d0, d16
	.loc	1 265 68                @ /root/Bela/projects/Autotune/render.cpp:265:68
	vmov.f64	d18, #5.000000e-01
.Ltmp589:
	.loc	1 262 7                 @ /root/Bela/projects/Autotune/render.cpp:262:7
	vcmpe.f64	d17, #0
.Ltmp590:
	.loc	1 265 68                @ /root/Bela/projects/Autotune/render.cpp:265:68
	vmul.f64	d17, d17, d18
.Ltmp591:
	.loc	1 262 7                 @ /root/Bela/projects/Autotune/render.cpp:262:7
	vmrs	APSR_nzcv, fpscr
	ble	.LBB6_65
.Ltmp592:
@ BB#64:
	@DEBUG_VALUE: process_fft:target <- %D0
	.loc	1 263 39                @ /root/Bela/projects/Autotune/render.cpp:263:39
	vadd.f64	d17, d17, d16
.Ltmp593:
	@DEBUG_VALUE: partialtarget <- %D17
	b	.LBB6_66
.Ltmp594:
.LBB6_65:
	@DEBUG_VALUE: process_fft:target <- %D0
	.loc	1 265 39                @ /root/Bela/projects/Autotune/render.cpp:265:39
	vadd.f64	d17, d16, d17
.Ltmp595:
	@DEBUG_VALUE: partialtarget <- %D17
.LBB6_66:
	@DEBUG_VALUE: partialtarget <- %D17
	@DEBUG_VALUE: process_fft:target <- %D0
	.loc	1 266 30                @ /root/Bela/projects/Autotune/render.cpp:266:30
	vdiv.f64	d16, d17, d16
	.loc	1 266 17 is_stmt 0      @ /root/Bela/projects/Autotune/render.cpp:266:17
	vcvt.f32.f64	s2, d16
	.loc	1 266 15                @ /root/Bela/projects/Autotune/render.cpp:266:15
	vstr	s2, [r1, #4]
.Ltmp596:
.LBB6_67:
	@DEBUG_VALUE: process_fft:target <- %D0
	.loc	1 267 3 is_stmt 1       @ /root/Bela/projects/Autotune/render.cpp:267:3
	vmov	r0, s2
.Ltmp597:
	.loc	1 270 6                 @ /root/Bela/projects/Autotune/render.cpp:270:6
	vldr	s0, [r1, #28]
.Ltmp598:
	.loc	1 270 6 is_stmt 0       @ /root/Bela/projects/Autotune/render.cpp:270:6
	vcmpe.f32	s0, #0
	vmrs	APSR_nzcv, fpscr
	ble	.LBB6_73
@ BB#68:
.Ltmp599:
	.loc	1 271 21 is_stmt 1      @ /root/Bela/projects/Autotune/render.cpp:271:21
	vldr	s4, [r1, #20]
	.loc	1 271 19 is_stmt 0      @ /root/Bela/projects/Autotune/render.cpp:271:19
	vsub.f32	d3, d1, d2
.Ltmp600:
	.loc	1 271 7                 @ /root/Bela/projects/Autotune/render.cpp:271:7
	vcmpe.f32	s6, s0
	vmrs	APSR_nzcv, fpscr
	ble	.LBB6_70
@ BB#69:
.Ltmp601:
	.loc	1 272 34 is_stmt 1      @ /root/Bela/projects/Autotune/render.cpp:272:34
	vadd.f32	d1, d2, d0
	b	.LBB6_72
.LBB6_70:
.Ltmp602:
	.loc	1 273 27                @ /root/Bela/projects/Autotune/render.cpp:273:27
	vsub.f32	d3, d2, d1
.Ltmp603:
	.loc	1 273 11 is_stmt 0      @ /root/Bela/projects/Autotune/render.cpp:273:11
	vcmpe.f32	s6, s0
	vmrs	APSR_nzcv, fpscr
	ble	.LBB6_73
@ BB#71:
.Ltmp604:
	.loc	1 274 34 is_stmt 1      @ /root/Bela/projects/Autotune/render.cpp:274:34
	vsub.f32	d1, d2, d0
.LBB6_72:
	.loc	1 274 4 is_stmt 0       @ /root/Bela/projects/Autotune/render.cpp:274:4
	vmov	r0, s2
	.loc	1 274 16                @ /root/Bela/projects/Autotune/render.cpp:274:16
	vstr	s2, [r1, #4]
.Ltmp605:
.LBB6_73:
	.loc	10 781 32 is_stmt 1     @ /usr/bin/../lib/gcc/arm-linux-gnueabihf/6.3.0/../../../../include/c++/6.3.0/bits/stl_vector.h:781:32
	ldr	r4, [r9, #76]
.Ltmp606:
	.loc	1 285 23                @ /root/Bela/projects/Autotune/render.cpp:285:23
	vmov.f32	d8, #5.000000e-01
.Ltmp607:
	.loc	10 781 32               @ /usr/bin/../lib/gcc/arm-linux-gnueabihf/6.3.0/../../../../include/c++/6.3.0/bits/stl_vector.h:781:32
	ldr	r5, [r9, #88]
	mov	r6, #0
.Ltmp608:
	.loc	10 781 32 is_stmt 0     @ /usr/bin/../lib/gcc/arm-linux-gnueabihf/6.3.0/../../../../include/c++/6.3.0/bits/stl_vector.h:781:32
	ldr	r8, [r9, #100]
.Ltmp609:
	.loc	1 282 2 is_stmt 1 discriminator 1 @ /root/Bela/projects/Autotune/render.cpp:282:2
	movw	r7, #513
.Ltmp610:
	.loc	10 781 32               @ /usr/bin/../lib/gcc/arm-linux-gnueabihf/6.3.0/../../../../include/c++/6.3.0/bits/stl_vector.h:781:32
	ldr	r10, [r9, #112]
.Ltmp611:
	.loc	1 277 18                @ /root/Bela/projects/Autotune/render.cpp:277:18
	str	r0, [r1, #20]
.Ltmp612:
	@DEBUG_VALUE: n <- 0
	b	.LBB6_81
	.p2align	2
@ BB#74:
.LCPI6_7:
	.long	3234402267              @ float -6.28318548
	.p2align	3
@ BB#75:
.LCPI6_8:
	.long	1841940611              @ double 0.15915494309189535
	.long	1069834032
	.p2align	2
@ BB#76:
.LCPI6_9:
	.long	1086918619              @ float 6.28318548
	.p2align	3
@ BB#77:
.LCPI6_10:
	.long	1413754136              @ double 0.0061359231515425647
	.long	1064903163
	.p2align	3
@ BB#78:
.LCPI6_11:
	.long	1413754136              @ double -3.1415926535897931
	.long	3221823995
	.p2align	3
@ BB#79:
.LCPI6_12:
	.long	1413754136              @ double 3.1415926535897931
	.long	1074340347
.LBB6_80:                               @ %._crit_edge
                                        @   in Loop: Header=BB6_81 Depth=1
.Ltmp613:
	@DEBUG_VALUE: n <- %R6
	.loc	1 282 2 discriminator 1 @ /root/Bela/projects/Autotune/render.cpp:282:2
	add	r4, r4, #4
	add	r5, r5, #4
.Ltmp614:
	.loc	1 285 27                @ /root/Bela/projects/Autotune/render.cpp:285:27
	vldr	s2, [r2, #4]
.Ltmp615:
.LBB6_81:                               @ =>This Inner Loop Header: Depth=1
	@DEBUG_VALUE: operator[]:__n <- %R6
	.loc	1 285 23 is_stmt 0      @ /root/Bela/projects/Autotune/render.cpp:285:23
	vmov	s0, r6
	vcvt.f32.s32	d16, d0
	.loc	1 285 25                @ /root/Bela/projects/Autotune/render.cpp:285:25
	vmul.f32	d16, d1, d16
	.loc	1 285 23                @ /root/Bela/projects/Autotune/render.cpp:285:23
	vadd.f32	d0, d16, d8
	.loc	1 285 16 discriminator 1 @ /root/Bela/projects/Autotune/render.cpp:285:16
                                        @ kill: %S0<def> %S0<kill> %D0<kill>
	bl	floorf
                                        @ kill: %S0<def> %S0<kill> %D0<def>
.Ltmp616:
	.loc	10 781 32 is_stmt 1     @ /usr/bin/../lib/gcc/arm-linux-gnueabihf/6.3.0/../../../../include/c++/6.3.0/bits/stl_vector.h:781:32
	movw	r2, :lower16:.L_MergedGlobals
.Ltmp617:
	.loc	1 285 16                @ /root/Bela/projects/Autotune/render.cpp:285:16
	vcvt.s32.f32	d0, d0
.Ltmp618:
	.loc	10 781 32               @ /usr/bin/../lib/gcc/arm-linux-gnueabihf/6.3.0/../../../../include/c++/6.3.0/bits/stl_vector.h:781:32
	movt	r2, :upper16:.L_MergedGlobals
.Ltmp619:
	.loc	1 285 16                @ /root/Bela/projects/Autotune/render.cpp:285:16
	vmov	r0, s0
.Ltmp620:
	@DEBUG_VALUE: newBin <- %R0
	@DEBUG_VALUE: operator[]:__n <- %R0
	@DEBUG_VALUE: operator[]:__n <- %R0
	.loc	1 288 6                 @ /root/Bela/projects/Autotune/render.cpp:288:6
	cmp	r0, #512
	bgt	.LBB6_83
.Ltmp621:
@ BB#82:                                @   in Loop: Header=BB6_81 Depth=1
	@DEBUG_VALUE: operator[]:__n <- %R0
	@DEBUG_VALUE: operator[]:__n <- %R0
	@DEBUG_VALUE: newBin <- %R0
	@DEBUG_VALUE: operator[]:__n <- %R6
	.loc	10 781 41               @ /usr/bin/../lib/gcc/arm-linux-gnueabihf/6.3.0/../../../../include/c++/6.3.0/bits/stl_vector.h:781:41
	add	r1, r8, r0, lsl #2
.Ltmp622:
	.loc	1 289 35                @ /root/Bela/projects/Autotune/render.cpp:289:35
	vldr	s0, [r4]
.Ltmp623:
	.loc	10 781 41               @ /usr/bin/../lib/gcc/arm-linux-gnueabihf/6.3.0/../../../../include/c++/6.3.0/bits/stl_vector.h:781:41
	add	r0, r10, r0, lsl #2
.Ltmp624:
	.loc	1 289 32                @ /root/Bela/projects/Autotune/render.cpp:289:32
	vldr	s2, [r1]
	vadd.f32	d0, d1, d0
	vstr	s0, [r1]
	.loc	1 290 35                @ /root/Bela/projects/Autotune/render.cpp:290:35
	vldr	s0, [r5]
	.loc	1 290 60 is_stmt 0      @ /root/Bela/projects/Autotune/render.cpp:290:60
	vldr	s2, [r2, #4]
	.loc	1 290 58                @ /root/Bela/projects/Autotune/render.cpp:290:58
	vmul.f32	d0, d1, d0
	.loc	1 290 33                @ /root/Bela/projects/Autotune/render.cpp:290:33
	vstr	s0, [r0]
.Ltmp625:
.LBB6_83:                               @   in Loop: Header=BB6_81 Depth=1
	@DEBUG_VALUE: operator[]:__n <- %R6
	.loc	1 282 35 is_stmt 1 discriminator 3 @ /root/Bela/projects/Autotune/render.cpp:282:35
	add	r6, r6, #1
.Ltmp626:
	@DEBUG_VALUE: n <- %R6
	.loc	1 282 2 is_stmt 0 discriminator 1 @ /root/Bela/projects/Autotune/render.cpp:282:2
	cmp	r6, r7
	bne	.LBB6_80
.Ltmp627:
@ BB#84:                                @ %.preheader
	@DEBUG_VALUE: n <- %R6
	.loc	1 174 7 is_stmt 1       @ /root/Bela/projects/Autotune/render.cpp:174:7
	movw	r0, :lower16:.L_MergedGlobals.2
.Ltmp628:
	.loc	10 781 32               @ /usr/bin/../lib/gcc/arm-linux-gnueabihf/6.3.0/../../../../include/c++/6.3.0/bits/stl_vector.h:781:32
	ldr	r1, [r9, #64]
.Ltmp629:
	.loc	1 174 7                 @ /root/Bela/projects/Autotune/render.cpp:174:7
	movt	r0, :upper16:.L_MergedGlobals.2
.Ltmp630:
	.loc	10 781 32               @ /usr/bin/../lib/gcc/arm-linux-gnueabihf/6.3.0/../../../../include/c++/6.3.0/bits/stl_vector.h:781:32
	ldr	r8, [r9, #100]
.Ltmp631:
	.loc	3 30 38                 @ ./libraries/Fft/Fft.h:30:38
	ldr	r0, [r0, #4]
.Ltmp632:
	.loc	1 310 35                @ /root/Bela/projects/Autotune/render.cpp:310:35
	vmov.i32	d12, #0x43000000
.Ltmp633:
	.loc	10 781 32               @ /usr/bin/../lib/gcc/arm-linux-gnueabihf/6.3.0/../../../../include/c++/6.3.0/bits/stl_vector.h:781:32
	ldr	r9, [r9, #112]
	mov	r7, #0
.Ltmp634:
	.loc	1 299 2 discriminator 1 @ /root/Bela/projects/Autotune/render.cpp:299:2
	add	r5, r0, #4
	add	r10, r0, #8192
.Ltmp635:
	.loc	1 306 83                @ /root/Bela/projects/Autotune/render.cpp:306:83
	vldr	d11, .LCPI6_6
	mov	r4, #0
.Ltmp636:
	.loc	1 138 16                @ /root/Bela/projects/Autotune/render.cpp:138:16
	vldr	s16, .LCPI6_4
	.loc	1 136 16                @ /root/Bela/projects/Autotune/render.cpp:136:16
	vldr	s18, .LCPI6_2
.Ltmp637:
	.loc	10 781 32               @ /usr/bin/../lib/gcc/arm-linux-gnueabihf/6.3.0/../../../../include/c++/6.3.0/bits/stl_vector.h:781:32
	str	r1, [sp, #12]           @ 4-byte Spill
.Ltmp638:
.LBB6_85:                               @ =>This Inner Loop Header: Depth=1
	.loc	1 303 50                @ /root/Bela/projects/Autotune/render.cpp:303:50
	vmov	s0, r4
	.loc	1 303 24 is_stmt 0      @ /root/Bela/projects/Autotune/render.cpp:303:24
	add	r0, r9, r7
	.loc	1 303 50                @ /root/Bela/projects/Autotune/render.cpp:303:50
	vcvt.f32.s32	d0, d0
.Ltmp639:
	.loc	1 190 70 is_stmt 1      @ /root/Bela/projects/Autotune/render.cpp:190:70
	vldr	d18, .LCPI6_0
.Ltmp640:
	.loc	1 303 24                @ /root/Bela/projects/Autotune/render.cpp:303:24
	vldr	s2, [r0]
	.loc	1 313 30                @ /root/Bela/projects/Autotune/render.cpp:313:30
	ldr	r0, [sp, #12]           @ 4-byte Reload
	add	r6, r0, r7
	.loc	1 300 21                @ /root/Bela/projects/Autotune/render.cpp:300:21
	add	r0, r8, r7
	.loc	1 309 61                @ /root/Bela/projects/Autotune/render.cpp:309:61
	vcvt.f64.f32	d16, s0
	.loc	1 303 48                @ /root/Bela/projects/Autotune/render.cpp:303:48
	vsub.f32	d0, d1, d0
.Ltmp641:
	@DEBUG_VALUE: binDeviation <- %S0
	.loc	1 313 30                @ /root/Bela/projects/Autotune/render.cpp:313:30
	vldr	s4, [r6]
	.loc	1 309 70                @ /root/Bela/projects/Autotune/render.cpp:309:70
	vmul.f64	d16, d16, d18
	.loc	1 306 21                @ /root/Bela/projects/Autotune/render.cpp:306:21
	vcvt.f64.f32	d17, s0
	.loc	1 306 83 is_stmt 0      @ /root/Bela/projects/Autotune/render.cpp:306:83
	vmul.f64	d17, d17, d11
	.loc	1 309 30 is_stmt 1      @ /root/Bela/projects/Autotune/render.cpp:309:30
	vcvt.f32.f64	s0, d16
.Ltmp642:
	@DEBUG_VALUE: binCentreFrequency <- %S0
	.loc	1 310 35                @ /root/Bela/projects/Autotune/render.cpp:310:35
	vmul.f32	d16, d0, d12
	.loc	1 300 21                @ /root/Bela/projects/Autotune/render.cpp:300:21
	vldr	s26, [r0]
.Ltmp643:
	@DEBUG_VALUE: amplitude <- %S26
	.loc	1 306 21                @ /root/Bela/projects/Autotune/render.cpp:306:21
	vcvt.f32.f64	s2, d17
.Ltmp644:
	@DEBUG_VALUE: phaseDiff <- %S2
	.loc	1 310 13                @ /root/Bela/projects/Autotune/render.cpp:310:13
	vadd.f32	d16, d2, d16
.Ltmp645:
	@DEBUG_VALUE: phaseDiff <- undef
	.loc	1 313 50                @ /root/Bela/projects/Autotune/render.cpp:313:50
	vadd.f32	d0, d16, d1
.Ltmp646:
	@DEBUG_VALUE: wrapPhase:phaseIn <- %S0
	.loc	1 136 22                @ /root/Bela/projects/Autotune/render.cpp:136:22
	vcvt.f64.f32	d16, s0
.Ltmp647:
	.loc	1 135 9                 @ /root/Bela/projects/Autotune/render.cpp:135:9
	vcmpe.f32	s0, #0
	vmrs	APSR_nzcv, fpscr
.Ltmp648:
	@DEBUG_VALUE: operator[]:__n <- %R4
	bge	.LBB6_87
.Ltmp649:
@ BB#86:                                @   in Loop: Header=BB6_85 Depth=1
	@DEBUG_VALUE: operator[]:__n <- %R4
	@DEBUG_VALUE: wrapPhase:phaseIn <- %S0
	@DEBUG_VALUE: amplitude <- %S26
	.loc	1 138 30                @ /root/Bela/projects/Autotune/render.cpp:138:30
	vldr	d17, .LCPI6_3
.Ltmp650:
	.loc	1 138 16 is_stmt 0      @ /root/Bela/projects/Autotune/render.cpp:138:16
	vmov.f32	s1, s16
	.loc	1 138 30                @ /root/Bela/projects/Autotune/render.cpp:138:30
	vadd.f64	d16, d16, d17
	.loc	1 138 22                @ /root/Bela/projects/Autotune/render.cpp:138:22
	vcvt.f32.f64	s0, d16
.Ltmp651:
	.loc	1 138 16                @ /root/Bela/projects/Autotune/render.cpp:138:16
	bl	__fmodf_finite
	vcvt.f64.f32	d16, s0
.Ltmp652:
	.loc	1 138 87                @ /root/Bela/projects/Autotune/render.cpp:138:87
	vldr	d17, .LCPI6_1
	b	.LBB6_88
.Ltmp653:
.LBB6_87:                               @   in Loop: Header=BB6_85 Depth=1
	@DEBUG_VALUE: operator[]:__n <- %R4
	@DEBUG_VALUE: wrapPhase:phaseIn <- %S0
	@DEBUG_VALUE: amplitude <- %S26
	vldr	d17, .LCPI6_1
.Ltmp654:
	.loc	1 136 16 is_stmt 1      @ /root/Bela/projects/Autotune/render.cpp:136:16
	vmov.f32	s1, s18
	.loc	1 136 30 is_stmt 0      @ /root/Bela/projects/Autotune/render.cpp:136:30
	vadd.f64	d16, d16, d17
	.loc	1 136 22                @ /root/Bela/projects/Autotune/render.cpp:136:22
	vcvt.f32.f64	s0, d16
.Ltmp655:
	.loc	1 136 16                @ /root/Bela/projects/Autotune/render.cpp:136:16
	bl	__fmodf_finite
	vcvt.f64.f32	d16, s0
.Ltmp656:
	.loc	1 138 30 is_stmt 1      @ /root/Bela/projects/Autotune/render.cpp:138:30
	vldr	d17, .LCPI6_3
.Ltmp657:
.LBB6_88:                               @ %_Z9wrapPhasef.exit
                                        @   in Loop: Header=BB6_85 Depth=1
	@DEBUG_VALUE: operator[]:__n <- %R4
	@DEBUG_VALUE: amplitude <- %S26
	.loc	1 138 87 is_stmt 0      @ /root/Bela/projects/Autotune/render.cpp:138:87
	vadd.f64	d16, d16, d17
	add	r0, sp, #20
	add	r1, sp, #16
	.loc	1 136 16 is_stmt 1      @ /root/Bela/projects/Autotune/render.cpp:136:16
	vcvt.f32.f64	s20, d16
.Ltmp658:
	@DEBUG_VALUE: outPhase <- %S20
	.loc	1 316 29                @ /root/Bela/projects/Autotune/render.cpp:316:29
	vmov.f32	s0, s20
	bl	sincosf
	vldr	s0, [sp, #16]
.Ltmp659:
	.loc	1 320 12                @ /root/Bela/projects/Autotune/render.cpp:320:12
	cmp	r4, #1
.Ltmp660:
	.loc	1 316 29                @ /root/Bela/projects/Autotune/render.cpp:316:29
	vldr	s2, [sp, #20]
	.loc	1 316 27 is_stmt 0      @ /root/Bela/projects/Autotune/render.cpp:316:27
	vmul.f32	d0, d0, d13
.Ltmp661:
	.loc	1 322 35 is_stmt 1      @ /root/Bela/projects/Autotune/render.cpp:322:35
	vmul.f32	d1, d1, d13
.Ltmp662:
	.loc	1 316 15                @ /root/Bela/projects/Autotune/render.cpp:316:15
	vstr	s0, [r5, #-4]
	.loc	1 317 15                @ /root/Bela/projects/Autotune/render.cpp:317:15
	vstr	s2, [r5]
	blt	.LBB6_91
.Ltmp663:
@ BB#89:                                @ %_Z9wrapPhasef.exit
                                        @   in Loop: Header=BB6_85 Depth=1
	@DEBUG_VALUE: outPhase <- %S20
	@DEBUG_VALUE: operator[]:__n <- %R4
	@DEBUG_VALUE: amplitude <- %S26
	cmp	r7, #2048
	beq	.LBB6_91
.Ltmp664:
@ BB#90:                                @   in Loop: Header=BB6_85 Depth=1
	@DEBUG_VALUE: outPhase <- %S20
	@DEBUG_VALUE: operator[]:__n <- %R4
	@DEBUG_VALUE: amplitude <- %S26
	.loc	1 322 29                @ /root/Bela/projects/Autotune/render.cpp:322:29
	vneg.f32	d1, d1
	.loc	1 321 27                @ /root/Bela/projects/Autotune/render.cpp:321:27
	vstr	s0, [r10]
	.loc	1 322 27                @ /root/Bela/projects/Autotune/render.cpp:322:27
	vstr	s2, [r10, #4]
.Ltmp665:
.LBB6_91:                               @   in Loop: Header=BB6_85 Depth=1
	@DEBUG_VALUE: outPhase <- %S20
	@DEBUG_VALUE: operator[]:__n <- %R4
	@DEBUG_VALUE: amplitude <- %S26
	.loc	1 299 2 discriminator 1 @ /root/Bela/projects/Autotune/render.cpp:299:2
	add	r5, r5, #8
	add	r7, r7, #4
	sub	r10, r10, #8
	.loc	1 299 37 is_stmt 0 discriminator 3 @ /root/Bela/projects/Autotune/render.cpp:299:37
	add	r4, r4, #1
.Ltmp666:
	@DEBUG_VALUE: n <- %R4
	.loc	1 299 2 discriminator 1 @ /root/Bela/projects/Autotune/render.cpp:299:2
	movw	r0, #2052
.Ltmp667:
	.loc	1 326 23 is_stmt 1      @ /root/Bela/projects/Autotune/render.cpp:326:23
	vstr	s20, [r6]
.Ltmp668:
	.loc	1 299 2 discriminator 1 @ /root/Bela/projects/Autotune/render.cpp:299:2
	cmp	r7, r0
	bne	.LBB6_85
.Ltmp669:
@ BB#92:
	@DEBUG_VALUE: n <- %R4
	@DEBUG_VALUE: outPhase <- %S20
	@DEBUG_VALUE: amplitude <- %S26
	@DEBUG_VALUE: fdi:this <- undef
	.loc	1 174 7                 @ /root/Bela/projects/Autotune/render.cpp:174:7
	movw	r5, :lower16:.L_MergedGlobals.2
	movt	r5, :upper16:.L_MergedGlobals.2
.Ltmp670:
	@DEBUG_VALUE: fdi:this <- %R5
	.loc	1 330 7                 @ /root/Bela/projects/Autotune/render.cpp:330:7
	mov	r0, r5
	bl	_ZN3Fft4ifftEv
.Ltmp671:
	.loc	1 333 2 discriminator 1 @ /root/Bela/projects/Autotune/render.cpp:333:2
	ldr	r0, [sp, #8]            @ 4-byte Reload
	mov	r7, #0
.Ltmp672:
	@DEBUG_VALUE: n <- 0
	.loc	3 43 37                 @ ./libraries/Fft/Fft.h:43:37
	ldr	r3, [r5]
.Ltmp673:
	.loc	1 333 2 discriminator 1 @ /root/Bela/projects/Autotune/render.cpp:333:2
	add	r4, r0, #15360
.Ltmp674:
	.loc	10 781 32               @ /usr/bin/../lib/gcc/arm-linux-gnueabihf/6.3.0/../../../../include/c++/6.3.0/bits/stl_vector.h:781:32
	ldr	r0, [sp, #4]            @ 4-byte Reload
	ldr	r1, [r0]
.Ltmp675:
	.loc	10 781 32 is_stmt 0     @ /usr/bin/../lib/gcc/arm-linux-gnueabihf/6.3.0/../../../../include/c++/6.3.0/bits/stl_vector.h:781:32
	movw	r0, :lower16:.L_MergedGlobals
	movt	r0, :upper16:.L_MergedGlobals
.Ltmp676:
	.loc	10 781 32               @ /usr/bin/../lib/gcc/arm-linux-gnueabihf/6.3.0/../../../../include/c++/6.3.0/bits/stl_vector.h:781:32
	ldr	r2, [r0, #112]
.Ltmp677:
.LBB6_93:                               @ =>This Inner Loop Header: Depth=1
	.loc	1 335 50 is_stmt 1      @ /root/Bela/projects/Autotune/render.cpp:335:50
	add	r6, r2, r7
	.loc	1 335 42 is_stmt 0      @ /root/Bela/projects/Autotune/render.cpp:335:42
	add	r5, r3, r7
	.loc	1 334 71 is_stmt 1      @ /root/Bela/projects/Autotune/render.cpp:334:71
	mov	r0, r4
.Ltmp678:
	.loc	1 333 2 discriminator 1 @ /root/Bela/projects/Autotune/render.cpp:333:2
	add	r7, r7, #4
.Ltmp679:
	.loc	1 334 71                @ /root/Bela/projects/Autotune/render.cpp:334:71
	bfc	r0, #14, #18
.Ltmp680:
	@DEBUG_VALUE: circularBufferIndex <- %R0
	@DEBUG_VALUE: operator[]:__n <- %R0
	.loc	1 335 42                @ /root/Bela/projects/Autotune/render.cpp:335:42
	vldr	s0, [r5]
	.loc	1 335 50 is_stmt 0      @ /root/Bela/projects/Autotune/render.cpp:335:50
	vldr	s2, [r6]
.Ltmp681:
	.loc	1 333 2 is_stmt 1 discriminator 1 @ /root/Bela/projects/Autotune/render.cpp:333:2
	add	r4, r4, #1
.Ltmp682:
	.loc	10 781 41               @ /usr/bin/../lib/gcc/arm-linux-gnueabihf/6.3.0/../../../../include/c++/6.3.0/bits/stl_vector.h:781:41
	add	r0, r1, r0, lsl #2
.Ltmp683:
	.loc	1 333 2 discriminator 1 @ /root/Bela/projects/Autotune/render.cpp:333:2
	cmp	r7, #4096
.Ltmp684:
	.loc	1 335 48                @ /root/Bela/projects/Autotune/render.cpp:335:48
	vmul.f32	d16, d1, d0
	.loc	1 335 34 is_stmt 0      @ /root/Bela/projects/Autotune/render.cpp:335:34
	vldr	s0, [r0]
	vadd.f32	d0, d0, d16
	vstr	s0, [r0]
.Ltmp685:
	.loc	1 333 2 is_stmt 1 discriminator 1 @ /root/Bela/projects/Autotune/render.cpp:333:2
	bne	.LBB6_93
.Ltmp686:
@ BB#94:
	.loc	1 337 1 discriminator 10 @ /root/Bela/projects/Autotune/render.cpp:337:1
	sub	sp, r11, #96
	vpop	{d8, d9, d10, d11, d12, d13, d14, d15}
	add	sp, sp, #4
	pop	{r4, r5, r6, r7, r8, r9, r10, r11, pc}
.LBB6_95:
.Ltmp687:
	@DEBUG_VALUE: process_fft:inPointer <- %R6
	@DEBUG_VALUE: process_fft:outBuffer <- %R10
	@DEBUG_VALUE: process_fft:inBuffer <- %R8
.Ltmp336:
	b	.LBB6_104
.Ltmp688:
.LBB6_96:
	@DEBUG_VALUE: process_fft:inPointer <- %R6
	@DEBUG_VALUE: process_fft:outBuffer <- %R10
	@DEBUG_VALUE: process_fft:inBuffer <- %R8
.Ltmp333:
	b	.LBB6_104
.Ltmp689:
.LBB6_97:
	@DEBUG_VALUE: process_fft:inPointer <- %R6
	@DEBUG_VALUE: process_fft:outBuffer <- %R10
	@DEBUG_VALUE: process_fft:inBuffer <- %R8
.Ltmp330:
	b	.LBB6_104
.Ltmp690:
.LBB6_98:
	@DEBUG_VALUE: process_fft:inPointer <- %R6
	@DEBUG_VALUE: process_fft:outBuffer <- %R10
	@DEBUG_VALUE: process_fft:inBuffer <- %R8
.Ltmp327:
	b	.LBB6_104
.Ltmp691:
.LBB6_99:
	@DEBUG_VALUE: process_fft:inPointer <- %R6
	@DEBUG_VALUE: process_fft:outBuffer <- %R10
	@DEBUG_VALUE: process_fft:inBuffer <- %R8
.Ltmp324:
	b	.LBB6_104
.Ltmp692:
.LBB6_100:
	@DEBUG_VALUE: process_fft:inPointer <- %R6
	@DEBUG_VALUE: process_fft:outBuffer <- %R10
	@DEBUG_VALUE: process_fft:inBuffer <- %R8
.Ltmp321:
	b	.LBB6_104
.Ltmp693:
.LBB6_101:
	@DEBUG_VALUE: process_fft:inPointer <- %R6
	@DEBUG_VALUE: process_fft:outBuffer <- %R10
	@DEBUG_VALUE: process_fft:inBuffer <- %R8
.Ltmp318:
	b	.LBB6_104
.Ltmp694:
.LBB6_102:
	@DEBUG_VALUE: process_fft:inPointer <- %R6
	@DEBUG_VALUE: process_fft:outBuffer <- %R10
	@DEBUG_VALUE: process_fft:inBuffer <- %R8
.Ltmp315:
	b	.LBB6_104
.Ltmp695:
.LBB6_103:
	@DEBUG_VALUE: process_fft:inPointer <- %R6
	@DEBUG_VALUE: process_fft:outBuffer <- %R10
	@DEBUG_VALUE: process_fft:inBuffer <- %R8
.Ltmp312:
.Ltmp696:
.LBB6_104:
	@DEBUG_VALUE: process_fft:inPointer <- %R6
	@DEBUG_VALUE: process_fft:outBuffer <- %R10
	@DEBUG_VALUE: process_fft:inBuffer <- %R8
	mov	r5, r0
	.loc	1 153 2 discriminator 10 @ /root/Bela/projects/Autotune/render.cpp:153:2
	mov	r0, r4
.Ltmp697:
.LBB6_105:
	@DEBUG_VALUE: process_fft:inPointer <- %R6
	@DEBUG_VALUE: process_fft:outBuffer <- %R10
	@DEBUG_VALUE: process_fft:inBuffer <- %R8
	.loc	1 151 2 discriminator 11 @ /root/Bela/projects/Autotune/render.cpp:151:2
	bl	__cxa_guard_abort
	mov	r0, r5
	mov	lr, pc
	b	_Unwind_Resume
.Ltmp698:
.LBB6_106:
	@DEBUG_VALUE: process_fft:inPointer <- %R6
	@DEBUG_VALUE: process_fft:outBuffer <- %R10
	@DEBUG_VALUE: process_fft:inBuffer <- %R8
.Ltmp309:
	mov	r5, r0
	movw	r0, :lower16:.L_MergedGlobals.3
	movt	r0, :upper16:.L_MergedGlobals.3
	b	.LBB6_105
.Ltmp699:
	.p2align	3
@ BB#107:
.LCPI6_0:
	.long	1413754136              @ double 0.0061359231515425647
	.long	1064903163
.LCPI6_1:
	.long	1413754136              @ double 3.1415926535897931
	.long	1074340347
.LCPI6_3:
	.long	1413754136              @ double -3.1415926535897931
	.long	3221823995
.LCPI6_6:
	.long	1413754136              @ double 0.78539816339744828
	.long	1072243195
.LCPI6_2:
	.long	1086918619              @ float 6.28318548
.LCPI6_4:
	.long	3234402267              @ float -6.28318548
.Lfunc_end6:
	.size	_Z11process_fftRKSt6vectorIfSaIfEEjRS1_j, .Lfunc_end6-_Z11process_fftRKSt6vectorIfSaIfEEjRS1_j
	.cfi_endproc
	.file	60 "/usr/bin/../lib/gcc/arm-linux-gnueabihf/6.3.0/../../../../include/c++/6.3.0/ext" "type_traits.h"
	.file	61 "/usr/bin/../lib/gcc/arm-linux-gnueabihf/6.3.0/../../../../include/c++/6.3.0/bits" "stl_uninitialized.h"
	.globl	__gxx_personality_v0
	.personality __gxx_personality_v0
	.handlerdata
	.p2align	2
GCC_except_table6:
.Lexception2:
	.byte	255                     @ @LPStart Encoding = omit
	.byte	0                       @ @TType Encoding = absptr
	.asciz	"\207\202"              @ @TType base offset
	.byte	3                       @ Call site Encoding = udata4
	.ascii	"\204\002"              @ Call site table length
	.long	.Ltmp307-.Lfunc_begin6  @ >> Call Site 1 <<
	.long	.Ltmp308-.Ltmp307       @   Call between .Ltmp307 and .Ltmp308
	.long	.Ltmp309-.Lfunc_begin6  @     jumps to .Ltmp309
	.byte	0                       @   On action: cleanup
	.long	.Ltmp308-.Lfunc_begin6  @ >> Call Site 2 <<
	.long	.Ltmp310-.Ltmp308       @   Call between .Ltmp308 and .Ltmp310
	.long	0                       @     has no landing pad
	.byte	0                       @   On action: cleanup
	.long	.Ltmp310-.Lfunc_begin6  @ >> Call Site 3 <<
	.long	.Ltmp311-.Ltmp310       @   Call between .Ltmp310 and .Ltmp311
	.long	.Ltmp312-.Lfunc_begin6  @     jumps to .Ltmp312
	.byte	0                       @   On action: cleanup
	.long	.Ltmp311-.Lfunc_begin6  @ >> Call Site 4 <<
	.long	.Ltmp313-.Ltmp311       @   Call between .Ltmp311 and .Ltmp313
	.long	0                       @     has no landing pad
	.byte	0                       @   On action: cleanup
	.long	.Ltmp313-.Lfunc_begin6  @ >> Call Site 5 <<
	.long	.Ltmp314-.Ltmp313       @   Call between .Ltmp313 and .Ltmp314
	.long	.Ltmp315-.Lfunc_begin6  @     jumps to .Ltmp315
	.byte	0                       @   On action: cleanup
	.long	.Ltmp314-.Lfunc_begin6  @ >> Call Site 6 <<
	.long	.Ltmp316-.Ltmp314       @   Call between .Ltmp314 and .Ltmp316
	.long	0                       @     has no landing pad
	.byte	0                       @   On action: cleanup
	.long	.Ltmp316-.Lfunc_begin6  @ >> Call Site 7 <<
	.long	.Ltmp317-.Ltmp316       @   Call between .Ltmp316 and .Ltmp317
	.long	.Ltmp318-.Lfunc_begin6  @     jumps to .Ltmp318
	.byte	0                       @   On action: cleanup
	.long	.Ltmp317-.Lfunc_begin6  @ >> Call Site 8 <<
	.long	.Ltmp319-.Ltmp317       @   Call between .Ltmp317 and .Ltmp319
	.long	0                       @     has no landing pad
	.byte	0                       @   On action: cleanup
	.long	.Ltmp319-.Lfunc_begin6  @ >> Call Site 9 <<
	.long	.Ltmp320-.Ltmp319       @   Call between .Ltmp319 and .Ltmp320
	.long	.Ltmp321-.Lfunc_begin6  @     jumps to .Ltmp321
	.byte	0                       @   On action: cleanup
	.long	.Ltmp320-.Lfunc_begin6  @ >> Call Site 10 <<
	.long	.Ltmp322-.Ltmp320       @   Call between .Ltmp320 and .Ltmp322
	.long	0                       @     has no landing pad
	.byte	0                       @   On action: cleanup
	.long	.Ltmp322-.Lfunc_begin6  @ >> Call Site 11 <<
	.long	.Ltmp323-.Ltmp322       @   Call between .Ltmp322 and .Ltmp323
	.long	.Ltmp324-.Lfunc_begin6  @     jumps to .Ltmp324
	.byte	0                       @   On action: cleanup
	.long	.Ltmp323-.Lfunc_begin6  @ >> Call Site 12 <<
	.long	.Ltmp325-.Ltmp323       @   Call between .Ltmp323 and .Ltmp325
	.long	0                       @     has no landing pad
	.byte	0                       @   On action: cleanup
	.long	.Ltmp325-.Lfunc_begin6  @ >> Call Site 13 <<
	.long	.Ltmp326-.Ltmp325       @   Call between .Ltmp325 and .Ltmp326
	.long	.Ltmp327-.Lfunc_begin6  @     jumps to .Ltmp327
	.byte	0                       @   On action: cleanup
	.long	.Ltmp326-.Lfunc_begin6  @ >> Call Site 14 <<
	.long	.Ltmp328-.Ltmp326       @   Call between .Ltmp326 and .Ltmp328
	.long	0                       @     has no landing pad
	.byte	0                       @   On action: cleanup
	.long	.Ltmp328-.Lfunc_begin6  @ >> Call Site 15 <<
	.long	.Ltmp329-.Ltmp328       @   Call between .Ltmp328 and .Ltmp329
	.long	.Ltmp330-.Lfunc_begin6  @     jumps to .Ltmp330
	.byte	0                       @   On action: cleanup
	.long	.Ltmp329-.Lfunc_begin6  @ >> Call Site 16 <<
	.long	.Ltmp331-.Ltmp329       @   Call between .Ltmp329 and .Ltmp331
	.long	0                       @     has no landing pad
	.byte	0                       @   On action: cleanup
	.long	.Ltmp331-.Lfunc_begin6  @ >> Call Site 17 <<
	.long	.Ltmp332-.Ltmp331       @   Call between .Ltmp331 and .Ltmp332
	.long	.Ltmp333-.Lfunc_begin6  @     jumps to .Ltmp333
	.byte	0                       @   On action: cleanup
	.long	.Ltmp332-.Lfunc_begin6  @ >> Call Site 18 <<
	.long	.Ltmp334-.Ltmp332       @   Call between .Ltmp332 and .Ltmp334
	.long	0                       @     has no landing pad
	.byte	0                       @   On action: cleanup
	.long	.Ltmp334-.Lfunc_begin6  @ >> Call Site 19 <<
	.long	.Ltmp335-.Ltmp334       @   Call between .Ltmp334 and .Ltmp335
	.long	.Ltmp336-.Lfunc_begin6  @     jumps to .Ltmp336
	.byte	0                       @   On action: cleanup
	.long	.Ltmp335-.Lfunc_begin6  @ >> Call Site 20 <<
	.long	.Lfunc_end6-.Ltmp335    @   Call between .Ltmp335 and .Lfunc_end6
	.long	0                       @     has no landing pad
	.byte	0                       @   On action: cleanup
	.p2align	2
	.fnend

	.globl	render
	.p2align	2
	.type	render,%function
render:                                 @ @render
.Lfunc_begin7:
	.loc	1 355 0                 @ /root/Bela/projects/Autotune/render.cpp:355:0
	.fnstart
	.cfi_startproc
@ BB#0:
	.save	{r4, r5, r6, r7, r8, r9, r10, r11, lr}
	push	{r4, r5, r6, r7, r8, r9, r10, r11, lr}
.Ltmp700:
	.cfi_def_cfa_offset 36
.Ltmp701:
	.cfi_offset lr, -4
.Ltmp702:
	.cfi_offset r11, -8
.Ltmp703:
	.cfi_offset r10, -12
.Ltmp704:
	.cfi_offset r9, -16
.Ltmp705:
	.cfi_offset r8, -20
.Ltmp706:
	.cfi_offset r7, -24
.Ltmp707:
	.cfi_offset r6, -28
.Ltmp708:
	.cfi_offset r5, -32
.Ltmp709:
	.cfi_offset r4, -36
	.setfp	r11, sp, #28
	add	r11, sp, #28
.Ltmp710:
	.cfi_def_cfa r11, 8
	.pad	#4
	sub	sp, sp, #4
	.vsave	{d8, d9, d10}
	vpush	{d8, d9, d10}
.Ltmp711:
	.cfi_offset d10, -48
.Ltmp712:
	.cfi_offset d9, -56
.Ltmp713:
	.cfi_offset d8, -64
	.pad	#8
	sub	sp, sp, #8
	@DEBUG_VALUE: render:context <- %R0
	@DEBUG_VALUE: render:userData <- %R1
	mov	r4, r0
.Ltmp714:
	@DEBUG_VALUE: render:context <- %R4
	.loc	1 357 33 prologue_end   @ /root/Bela/projects/Autotune/render.cpp:357:33
	movw	r0, :lower16:.L_MergedGlobals.2
	movt	r0, :upper16:.L_MergedGlobals.2
	add	r5, r0, #40
	mov	r1, #0
.Ltmp715:
	mov	r7, #0
	mov	r0, r5
	bl	_ZN13GuiController14getSliderValueEi
	.loc	1 357 16 is_stmt 0      @ /root/Bela/projects/Autotune/render.cpp:357:16
	movw	r6, :lower16:.L_MergedGlobals
	.loc	1 358 36 is_stmt 1      @ /root/Bela/projects/Autotune/render.cpp:358:36
	mov	r0, r5
	.loc	1 357 16                @ /root/Bela/projects/Autotune/render.cpp:357:16
	movt	r6, :upper16:.L_MergedGlobals
	.loc	1 358 36                @ /root/Bela/projects/Autotune/render.cpp:358:36
	mov	r1, #1
	.loc	1 357 16                @ /root/Bela/projects/Autotune/render.cpp:357:16
	vstr	s0, [r6, #24]
	.loc	1 358 36                @ /root/Bela/projects/Autotune/render.cpp:358:36
	bl	_ZN13GuiController14getSliderValueEi
	.loc	1 358 19 is_stmt 0      @ /root/Bela/projects/Autotune/render.cpp:358:19
	vstr	s0, [r6, #28]
.Ltmp716:
	@DEBUG_VALUE: n <- 0
	.loc	1 363 39 is_stmt 1 discriminator 1 @ /root/Bela/projects/Autotune/render.cpp:363:39
	ldr	r0, [r4, #20]
	.loc	1 363 2 is_stmt 0 discriminator 1 @ /root/Bela/projects/Autotune/render.cpp:363:2
	cmp	r0, #0
	beq	.LBB7_13
.Ltmp717:
@ BB#1:                                 @ %.lr.ph25
	@DEBUG_VALUE: render:context <- %R4
	.loc	1 403 39 is_stmt 1      @ /root/Bela/projects/Autotune/render.cpp:403:39
	vmov.f32	d9, #5.000000e+00
.Ltmp718:
	.loc	1 407 10                @ /root/Bela/projects/Autotune/render.cpp:407:10
	movw	r10, :lower16:gScope
	movt	r10, :upper16:gScope
	mov	r9, #0
	mov	r8, #0
.Ltmp719:
.LBB7_2:                                @ =>This Loop Header: Depth=1
                                        @     Child Loop BB7_8 Depth 2
                                        @     Child Loop BB7_11 Depth 2
	.loc	1 365 28 discriminator 1 @ /root/Bela/projects/Autotune/render.cpp:365:28
	movw	r0, :lower16:gPlayer
	movt	r0, :upper16:gPlayer
	bl	_ZN14MonoFilePlayer7processEv
	.loc	1 372 35                @ /root/Bela/projects/Autotune/render.cpp:372:35
	ldr	r1, [r6, #12]
.Ltmp720:
	@DEBUG_VALUE: operator[]:__n <- %R1
	.loc	1 365 28 discriminator 1 @ /root/Bela/projects/Autotune/render.cpp:365:28
	vmov.f32	s16, s0
.Ltmp721:
	@DEBUG_VALUE: in <- %S16
	.loc	1 372 35                @ /root/Bela/projects/Autotune/render.cpp:372:35
	add	r0, r1, #1
	str	r0, [r6, #12]
.Ltmp722:
	.loc	10 781 32               @ /usr/bin/../lib/gcc/arm-linux-gnueabihf/6.3.0/../../../../include/c++/6.3.0/bits/stl_vector.h:781:32
	ldr	r2, [r6, #64]
	.loc	10 781 41 is_stmt 0     @ /usr/bin/../lib/gcc/arm-linux-gnueabihf/6.3.0/../../../../include/c++/6.3.0/bits/stl_vector.h:781:41
	add	r2, r2, r1, lsl #2
.Ltmp723:
	.loc	1 372 39 is_stmt 1      @ /root/Bela/projects/Autotune/render.cpp:372:39
	vstr	s16, [r2]
	.loc	1 373 6                 @ /root/Bela/projects/Autotune/render.cpp:373:6
	movw	r2, #16383
	cmp	r1, r2
	movge	r0, #0
.Ltmp724:
	.loc	1 376 24                @ /root/Bela/projects/Autotune/render.cpp:376:24
	strge	r0, [r6, #12]
.Ltmp725:
	.loc	1 380 29                @ /root/Bela/projects/Autotune/render.cpp:380:29
	ldr	r1, [r6, #40]
.Ltmp726:
	@DEBUG_VALUE: operator[]:__n <- %R1
	@DEBUG_VALUE: operator[]:__n <- %R1
	.loc	10 781 32               @ /usr/bin/../lib/gcc/arm-linux-gnueabihf/6.3.0/../../../../include/c++/6.3.0/bits/stl_vector.h:781:32
	ldr	r2, [r6, #88]
	.loc	10 781 41 is_stmt 0     @ /usr/bin/../lib/gcc/arm-linux-gnueabihf/6.3.0/../../../../include/c++/6.3.0/bits/stl_vector.h:781:41
	add	r3, r2, r1, lsl #2
.Ltmp727:
	.loc	1 380 15 is_stmt 1      @ /root/Bela/projects/Autotune/render.cpp:380:15
	vldr	s0, [r3]
.Ltmp728:
	@DEBUG_VALUE: out <- %S0
	.loc	1 390 31                @ /root/Bela/projects/Autotune/render.cpp:390:31
	movw	r3, #16382
.Ltmp729:
	.loc	1 383 43                @ /root/Bela/projects/Autotune/render.cpp:383:43
	str	r7, [r2, r1, lsl #2]
	.loc	1 389 27                @ /root/Bela/projects/Autotune/render.cpp:389:27
	add	r2, r1, #1
	.loc	1 390 6                 @ /root/Bela/projects/Autotune/render.cpp:390:6
	cmp	r1, r3
	.loc	1 386 10                @ /root/Bela/projects/Autotune/render.cpp:386:10
	vldr	s2, [r6]
	.loc	1 390 6                 @ /root/Bela/projects/Autotune/render.cpp:390:6
	movwgt	r2, #0
.Ltmp730:
	.loc	1 391 29                @ /root/Bela/projects/Autotune/render.cpp:391:29
	str	r2, [r6, #40]
.Ltmp731:
	.loc	1 386 7                 @ /root/Bela/projects/Autotune/render.cpp:386:7
	vmul.f32	d10, d1, d0
.Ltmp732:
	.loc	1 394 6                 @ /root/Bela/projects/Autotune/render.cpp:394:6
	ldr	r1, [r6, #16]
.Ltmp733:
	add	r2, r1, #1
	str	r2, [r6, #16]
.Ltmp734:
	.loc	1 394 6 is_stmt 0       @ /root/Bela/projects/Autotune/render.cpp:394:6
	cmp	r1, #127
	blt	.LBB7_4
.Ltmp735:
@ BB#3:                                 @   in Loop: Header=BB7_2 Depth=1
	@DEBUG_VALUE: out <- %S0
	@DEBUG_VALUE: in <- %S16
	.loc	1 395 16 is_stmt 1      @ /root/Bela/projects/Autotune/render.cpp:395:16
	str	r7, [r6, #16]
	.loc	1 397 30                @ /root/Bela/projects/Autotune/render.cpp:397:30
	str	r0, [r6, #48]
	.loc	1 398 31                @ /root/Bela/projects/Autotune/render.cpp:398:31
	ldr	r0, [r6, #44]
	.loc	1 398 4 is_stmt 0       @ /root/Bela/projects/Autotune/render.cpp:398:4
	bl	Bela_scheduleAuxiliaryTask
.Ltmp736:
.LBB7_4:                                @ %.preheader
                                        @   in Loop: Header=BB7_2 Depth=1
	@DEBUG_VALUE: in <- %S16
	@DEBUG_VALUE: out <- %S20
	.loc	1 402 52 is_stmt 1 discriminator 1 @ /root/Bela/projects/Autotune/render.cpp:402:52
	ldr	r0, [r4, #28]
	.loc	1 402 3 is_stmt 0 discriminator 1 @ /root/Bela/projects/Autotune/render.cpp:402:3
	cmp	r0, #0
	beq	.LBB7_12
.Ltmp737:
@ BB#5:                                 @ %.lr.ph
                                        @   in Loop: Header=BB7_2 Depth=1
	@DEBUG_VALUE: out <- %S20
	@DEBUG_VALUE: in <- %S16
	.loc	1 403 39 is_stmt 1      @ /root/Bela/projects/Autotune/render.cpp:403:39
	vmul.f32	d0, d10, d9
	ldr	r1, [r4, #4]
	mov	r2, #0
.Ltmp738:
	.loc	1 402 3 discriminator 1 @ /root/Bela/projects/Autotune/render.cpp:402:3
	cmp	r0, #3
	bls	.LBB7_10
.Ltmp739:
@ BB#6:                                 @ %min.iters.checked
                                        @   in Loop: Header=BB7_2 Depth=1
	@DEBUG_VALUE: out <- %S20
	@DEBUG_VALUE: in <- %S16
	mov	r5, r0
	bfc	r5, #0, #2
	cmp	r5, #0
	beq	.LBB7_10
.Ltmp740:
@ BB#7:                                 @ %vector.ph
                                        @   in Loop: Header=BB7_2 Depth=1
	@DEBUG_VALUE: out <- %S20
	@DEBUG_VALUE: in <- %S16
	mla	r2, r0, r9, r1
	vdup.32	q8, d0[0]
	.loc	1 402 77 is_stmt 0 discriminator 3 @ /root/Bela/projects/Autotune/render.cpp:402:77
	mov	r3, r5
.Ltmp741:
.LBB7_8:                                @ %vector.body
                                        @   Parent Loop BB7_2 Depth=1
                                        @ =>  This Inner Loop Header: Depth=2
	.loc	14 1276 65 is_stmt 1    @ ./include/Bela.h:1276:65
	vst1.32	{d16, d17}, [r2]!
.Ltmp742:
	.loc	1 402 3 discriminator 1 @ /root/Bela/projects/Autotune/render.cpp:402:3
	subs	r3, r3, #4
	bne	.LBB7_8
@ BB#9:                                 @ %middle.block
                                        @   in Loop: Header=BB7_2 Depth=1
	mov	r2, r5
	cmp	r0, r5
	beq	.LBB7_12
.LBB7_10:                               @ %scalar.ph.preheader
                                        @   in Loop: Header=BB7_2 Depth=1
.Ltmp743:
	.loc	14 1276 54              @ ./include/Bela.h:1276:54
	mla	r3, r0, r8, r2
	add	r1, r1, r3, lsl #2
.Ltmp744:
.LBB7_11:                               @ %scalar.ph
                                        @   Parent Loop BB7_2 Depth=1
                                        @ =>  This Inner Loop Header: Depth=2
	.loc	1 402 77 discriminator 3 @ /root/Bela/projects/Autotune/render.cpp:402:77
	add	r2, r2, #1
.Ltmp745:
	@DEBUG_VALUE: channel <- %R2
	.loc	14 1276 65              @ ./include/Bela.h:1276:65
	vstmia	r1!, {s0}
.Ltmp746:
	.loc	1 402 3 discriminator 1 @ /root/Bela/projects/Autotune/render.cpp:402:3
	cmp	r2, r0
	blo	.LBB7_11
.Ltmp747:
.LBB7_12:                               @ %._crit_edge
                                        @   in Loop: Header=BB7_2 Depth=1
	.loc	1 407 14                @ /root/Bela/projects/Autotune/render.cpp:407:14
	vcvt.f64.f32	d16, s16
	.loc	1 407 10 is_stmt 0      @ /root/Bela/projects/Autotune/render.cpp:407:10
	mov	r0, r10
	vmov	r2, r3, d16
	.loc	1 407 18                @ /root/Bela/projects/Autotune/render.cpp:407:18
	vcvt.f64.f32	d16, s20
	.loc	1 407 10                @ /root/Bela/projects/Autotune/render.cpp:407:10
	vstr	d16, [sp]
	bl	_ZN5Scope3logEdz
.Ltmp748:
	.loc	1 363 2 is_stmt 1 discriminator 1 @ /root/Bela/projects/Autotune/render.cpp:363:2
	add	r9, r9, #4
	.loc	1 363 53 is_stmt 0 discriminator 3 @ /root/Bela/projects/Autotune/render.cpp:363:53
	add	r8, r8, #1
.Ltmp749:
	@DEBUG_VALUE: n <- %R8
	.loc	1 363 39 discriminator 1 @ /root/Bela/projects/Autotune/render.cpp:363:39
	ldr	r0, [r4, #20]
	.loc	1 363 2 discriminator 1 @ /root/Bela/projects/Autotune/render.cpp:363:2
	cmp	r8, r0
	blo	.LBB7_2
.Ltmp750:
.LBB7_13:                               @ %._crit_edge26
	.loc	1 409 1 is_stmt 1       @ /root/Bela/projects/Autotune/render.cpp:409:1
	sub	sp, r11, #56
	vpop	{d8, d9, d10}
	add	sp, sp, #4
	pop	{r4, r5, r6, r7, r8, r9, r10, r11, pc}
.Ltmp751:
.Lfunc_end7:
	.size	render, .Lfunc_end7-render
	.cfi_endproc
	.fnend

	.globl	cleanup
	.p2align	2
	.type	cleanup,%function
cleanup:                                @ @cleanup
.Lfunc_begin8:
	.loc	1 412 0                 @ /root/Bela/projects/Autotune/render.cpp:412:0
	.fnstart
	.cfi_startproc
@ BB#0:
	@DEBUG_VALUE: cleanup:context <- %R0
	@DEBUG_VALUE: cleanup:userData <- %R1
	.loc	1 414 1 prologue_end    @ /root/Bela/projects/Autotune/render.cpp:414:1
	bx	lr
.Ltmp752:
.Lfunc_end8:
	.size	cleanup, .Lfunc_end8-cleanup
	.cfi_endproc
	.fnend

	.section	.text.__clang_call_terminate,"axG",%progbits,__clang_call_terminate,comdat
	.hidden	__clang_call_terminate
	.weak	__clang_call_terminate
	.p2align	2
	.type	__clang_call_terminate,%function
__clang_call_terminate:                 @ @__clang_call_terminate
.Lfunc_begin9:
	.fnstart
	.cfi_startproc
@ BB#0:
	.save	{r11, lr}
	push	{r11, lr}
.Ltmp753:
	.cfi_def_cfa_offset 8
.Ltmp754:
	.cfi_offset lr, -4
.Ltmp755:
	.cfi_offset r11, -8
	bl	__cxa_begin_catch
	mov	lr, pc
	b	_ZSt9terminatev
.Lfunc_end9:
	.size	__clang_call_terminate, .Lfunc_end9-__clang_call_terminate
	.cfi_endproc
	.cantunwind
	.fnend

	.section	.text._ZNSt6vectorIfSaIfEE17_M_default_appendEj,"axG",%progbits,_ZNSt6vectorIfSaIfEE17_M_default_appendEj,comdat
	.weak	_ZNSt6vectorIfSaIfEE17_M_default_appendEj
	.p2align	2
	.type	_ZNSt6vectorIfSaIfEE17_M_default_appendEj,%function
_ZNSt6vectorIfSaIfEE17_M_default_appendEj: @ @_ZNSt6vectorIfSaIfEE17_M_default_appendEj
.Lfunc_begin10:
	.file	62 "/usr/bin/../lib/gcc/arm-linux-gnueabihf/6.3.0/../../../../include/c++/6.3.0/bits" "vector.tcc"
	.loc	62 542 0                @ /usr/bin/../lib/gcc/arm-linux-gnueabihf/6.3.0/../../../../include/c++/6.3.0/bits/vector.tcc:542:0
	.fnstart
	.cfi_startproc
@ BB#0:
	.save	{r4, r5, r6, r7, r8, r10, r11, lr}
	push	{r4, r5, r6, r7, r8, r10, r11, lr}
.Ltmp756:
	.cfi_def_cfa_offset 32
.Ltmp757:
	.cfi_offset lr, -4
.Ltmp758:
	.cfi_offset r11, -8
.Ltmp759:
	.cfi_offset r10, -12
.Ltmp760:
	.cfi_offset r8, -16
.Ltmp761:
	.cfi_offset r7, -20
.Ltmp762:
	.cfi_offset r6, -24
.Ltmp763:
	.cfi_offset r5, -28
.Ltmp764:
	.cfi_offset r4, -32
	.setfp	r11, sp, #24
	add	r11, sp, #24
.Ltmp765:
	.cfi_def_cfa r11, 8
	@DEBUG_VALUE: _M_default_append:this <- %R0
	@DEBUG_VALUE: _M_default_append:__n <- %R1
	mov	r5, r1
.Ltmp766:
	@DEBUG_VALUE: _M_default_append:__n <- %R5
	mov	r4, r0
.Ltmp767:
	@DEBUG_VALUE: _M_default_append:this <- %R4
	.loc	62 543 11 prologue_end  @ /usr/bin/../lib/gcc/arm-linux-gnueabihf/6.3.0/../../../../include/c++/6.3.0/bits/vector.tcc:543:11
	cmp	r5, #0
	beq	.LBB10_11
.Ltmp768:
@ BB#1:
	@DEBUG_VALUE: _M_default_append:this <- %R4
	@DEBUG_VALUE: _M_default_append:__n <- %R5
	@DEBUG_VALUE: __fill_n_a<float *, unsigned int, float>:__first <- %R7
	@DEBUG_VALUE: fill_n<float *, unsigned int, float>:__first <- %R7
	@DEBUG_VALUE: __uninit_default_n<float *, unsigned int>:__first <- %R7
	@DEBUG_VALUE: __uninitialized_default_n<float *, unsigned int>:__first <- %R7
	@DEBUG_VALUE: __uninitialized_default_n_a<float *, unsigned int, float>:__first <- %R7
	.loc	62 546 20               @ /usr/bin/../lib/gcc/arm-linux-gnueabihf/6.3.0/../../../../include/c++/6.3.0/bits/vector.tcc:546:20
	ldr	r7, [r4, #4]
.Ltmp769:
	.loc	62 545 32               @ /usr/bin/../lib/gcc/arm-linux-gnueabihf/6.3.0/../../../../include/c++/6.3.0/bits/vector.tcc:545:32
	ldr	r0, [r4, #8]
	.loc	62 546 4                @ /usr/bin/../lib/gcc/arm-linux-gnueabihf/6.3.0/../../../../include/c++/6.3.0/bits/vector.tcc:546:4
	sub	r0, r0, r7
	asr	r0, r0, #2
.Ltmp770:
	.loc	62 545 8                @ /usr/bin/../lib/gcc/arm-linux-gnueabihf/6.3.0/../../../../include/c++/6.3.0/bits/vector.tcc:545:8
	cmp	r0, r5
	bhs	.LBB10_12
.Ltmp771:
@ BB#2:
	@DEBUG_VALUE: _M_default_append:this <- %R4
	@DEBUG_VALUE: _M_default_append:__n <- %R5
	@DEBUG_VALUE: size:this <- %R4
	.loc	10 656 66               @ /usr/bin/../lib/gcc/arm-linux-gnueabihf/6.3.0/../../../../include/c++/6.3.0/bits/stl_vector.h:656:66
	ldr	r1, [r4]
.Ltmp772:
	.loc	10 1422 17              @ /usr/bin/../lib/gcc/arm-linux-gnueabihf/6.3.0/../../../../include/c++/6.3.0/bits/stl_vector.h:1422:17
	mvn	r8, #-1073741824
.Ltmp773:
	.loc	10 656 50               @ /usr/bin/../lib/gcc/arm-linux-gnueabihf/6.3.0/../../../../include/c++/6.3.0/bits/stl_vector.h:656:50
	sub	r0, r7, r1
.Ltmp774:
	.loc	10 1422 17              @ /usr/bin/../lib/gcc/arm-linux-gnueabihf/6.3.0/../../../../include/c++/6.3.0/bits/stl_vector.h:1422:17
	sub	r2, r8, r0, asr #2
.Ltmp775:
	@DEBUG_VALUE: _M_check_len:__n <- %R5
	.loc	10 1422 6 is_stmt 0     @ /usr/bin/../lib/gcc/arm-linux-gnueabihf/6.3.0/../../../../include/c++/6.3.0/bits/stl_vector.h:1422:6
	cmp	r2, r5
	blo	.LBB10_13
.Ltmp776:
@ BB#3:                                 @ %_ZNKSt6vectorIfSaIfEE12_M_check_lenEjPKc.exit
	@DEBUG_VALUE: _M_check_len:__n <- %R5
	@DEBUG_VALUE: size:this <- %R4
	@DEBUG_VALUE: _M_default_append:this <- %R4
	@DEBUG_VALUE: _M_default_append:__n <- %R5
	.loc	10 656 50 is_stmt 1     @ /usr/bin/../lib/gcc/arm-linux-gnueabihf/6.3.0/../../../../include/c++/6.3.0/bits/stl_vector.h:656:50
	asr	r0, r0, #2
.Ltmp777:
	.loc	10 1425 35              @ /usr/bin/../lib/gcc/arm-linux-gnueabihf/6.3.0/../../../../include/c++/6.3.0/bits/stl_vector.h:1425:35
	cmp	r0, r5
	mov	r2, r0
	mov	r6, #0
	movlo	r2, r5
	add	r0, r2, r0
	.loc	10 1426 25              @ /usr/bin/../lib/gcc/arm-linux-gnueabihf/6.3.0/../../../../include/c++/6.3.0/bits/stl_vector.h:1426:25
	cmp	r6, r0, lsr #30
	mov	r3, r0
	mvnne	r3, #-1073741824
	cmp	r0, r2
	movhs	r8, r3
.Ltmp778:
	@DEBUG_VALUE: _M_allocate:__n <- %R8
	@DEBUG_VALUE: __len <- %R8
	@DEBUG_VALUE: allocate:__n <- %R8
	@DEBUG_VALUE: allocate:__n <- %R8
	.loc	10 170 9                @ /usr/bin/../lib/gcc/arm-linux-gnueabihf/6.3.0/../../../../include/c++/6.3.0/bits/stl_vector.h:170:9
	cmp	r8, #0
.Ltmp779:
	@DEBUG_VALUE: _M_check_len:__len <- %R0
	beq	.LBB10_6
.Ltmp780:
@ BB#4:
	@DEBUG_VALUE: _M_check_len:__len <- %R0
	@DEBUG_VALUE: allocate:__n <- %R8
	@DEBUG_VALUE: allocate:__n <- %R8
	@DEBUG_VALUE: __len <- %R8
	@DEBUG_VALUE: _M_allocate:__n <- %R8
	@DEBUG_VALUE: _M_check_len:__n <- %R5
	@DEBUG_VALUE: size:this <- %R4
	@DEBUG_VALUE: _M_default_append:this <- %R4
	@DEBUG_VALUE: _M_default_append:__n <- %R5
	.loc	6 101 6                 @ /usr/bin/../lib/gcc/arm-linux-gnueabihf/6.3.0/../../../../include/c++/6.3.0/ext/new_allocator.h:101:6
	cmp	r8, #1073741824
	bhs	.LBB10_14
.Ltmp781:
@ BB#5:                                 @ %_ZNSt16allocator_traitsISaIfEE8allocateERS0_j.exit.i
	@DEBUG_VALUE: _M_check_len:__len <- %R0
	@DEBUG_VALUE: allocate:__n <- %R8
	@DEBUG_VALUE: allocate:__n <- %R8
	@DEBUG_VALUE: __len <- %R8
	@DEBUG_VALUE: _M_allocate:__n <- %R8
	@DEBUG_VALUE: _M_check_len:__n <- %R5
	@DEBUG_VALUE: size:this <- %R4
	@DEBUG_VALUE: _M_default_append:this <- %R4
	@DEBUG_VALUE: _M_default_append:__n <- %R5
	.loc	6 104 46                @ /usr/bin/../lib/gcc/arm-linux-gnueabihf/6.3.0/../../../../include/c++/6.3.0/ext/new_allocator.h:104:46
	lsl	r0, r8, #2
.Ltmp782:
	.loc	6 104 27 is_stmt 0      @ /usr/bin/../lib/gcc/arm-linux-gnueabihf/6.3.0/../../../../include/c++/6.3.0/ext/new_allocator.h:104:27
	bl	_Znwj
.Ltmp783:
	.loc	62 563 22 is_stmt 1     @ /usr/bin/../lib/gcc/arm-linux-gnueabihf/6.3.0/../../../../include/c++/6.3.0/bits/vector.tcc:563:22
	ldm	r4, {r1, r7}
.Ltmp784:
	@DEBUG_VALUE: size:this <- %R4
	.loc	6 104 27                @ /usr/bin/../lib/gcc/arm-linux-gnueabihf/6.3.0/../../../../include/c++/6.3.0/ext/new_allocator.h:104:27
	mov	r6, r0
.Ltmp785:
.LBB10_6:                               @ %_ZNSt12_Vector_baseIfSaIfEE11_M_allocateEj.exit
	@DEBUG_VALUE: allocate:__n <- %R8
	@DEBUG_VALUE: allocate:__n <- %R8
	@DEBUG_VALUE: __len <- %R8
	@DEBUG_VALUE: _M_allocate:__n <- %R8
	@DEBUG_VALUE: _M_check_len:__n <- %R5
	@DEBUG_VALUE: size:this <- %R4
	@DEBUG_VALUE: _M_default_append:this <- %R4
	@DEBUG_VALUE: _M_default_append:__n <- %R5
	@DEBUG_VALUE: __uninitialized_move_if_noexcept_a<float *, float *, std::allocator<float> >:__first <- %R1
	@DEBUG_VALUE: uninitialized_copy<std::move_iterator<float *>, float *>:__assignable <- 1
	@DEBUG_VALUE: __copy_move_a<true, float *, float *>:__simple <- 1
	.loc	59 366 34               @ /usr/bin/../lib/gcc/arm-linux-gnueabihf/6.3.0/../../../../include/c++/6.3.0/bits/stl_algobase.h:366:34
	sub	r2, r7, r1
	mov	r0, #0
	asr	r7, r2, #2
.Ltmp786:
	@DEBUG_VALUE: __copy_m<float>:_Num <- %R7
	.loc	59 367 8                @ /usr/bin/../lib/gcc/arm-linux-gnueabihf/6.3.0/../../../../include/c++/6.3.0/bits/stl_algobase.h:367:8
	cmp	r0, r2, asr #2
	beq	.LBB10_8
.Ltmp787:
@ BB#7:
	@DEBUG_VALUE: __copy_m<float>:_Num <- %R7
	@DEBUG_VALUE: __uninitialized_move_if_noexcept_a<float *, float *, std::allocator<float> >:__first <- %R1
	@DEBUG_VALUE: allocate:__n <- %R8
	@DEBUG_VALUE: allocate:__n <- %R8
	@DEBUG_VALUE: __len <- %R8
	@DEBUG_VALUE: _M_allocate:__n <- %R8
	@DEBUG_VALUE: _M_check_len:__n <- %R5
	@DEBUG_VALUE: size:this <- %R4
	@DEBUG_VALUE: _M_default_append:this <- %R4
	@DEBUG_VALUE: _M_default_append:__n <- %R5
	.loc	59 368 6                @ /usr/bin/../lib/gcc/arm-linux-gnueabihf/6.3.0/../../../../include/c++/6.3.0/bits/stl_algobase.h:368:6
	mov	r0, r6
	bl	memmove
.Ltmp788:
	@DEBUG_VALUE: __uninitialized_move_if_noexcept_a<float *, float *, std::allocator<float> >:__result <- %R6
.LBB10_8:
	@DEBUG_VALUE: __copy_m<float>:_Num <- %R7
	@DEBUG_VALUE: allocate:__n <- %R8
	@DEBUG_VALUE: allocate:__n <- %R8
	@DEBUG_VALUE: __len <- %R8
	@DEBUG_VALUE: _M_allocate:__n <- %R8
	@DEBUG_VALUE: _M_check_len:__n <- %R5
	@DEBUG_VALUE: size:this <- %R4
	@DEBUG_VALUE: _M_default_append:this <- %R4
	@DEBUG_VALUE: _M_default_append:__n <- %R5
	.loc	59 369 20               @ /usr/bin/../lib/gcc/arm-linux-gnueabihf/6.3.0/../../../../include/c++/6.3.0/bits/stl_algobase.h:369:20
	add	r7, r6, r7, lsl #2
.Ltmp789:
	@DEBUG_VALUE: __niter <- %R5
	@DEBUG_VALUE: __fill_n_a<float *, unsigned int, float>:__first <- %R7
	@DEBUG_VALUE: fill_n<float *, unsigned int, float>:__first <- %R7
	@DEBUG_VALUE: __uninit_default_n<float *, unsigned int>:__first <- %R7
	@DEBUG_VALUE: __uninitialized_default_n<float *, unsigned int>:__assignable <- 1
	@DEBUG_VALUE: __uninitialized_default_n<float *, unsigned int>:__first <- %R7
	@DEBUG_VALUE: __uninitialized_default_n_a<float *, unsigned int, float>:__first <- %R7
	@DEBUG_VALUE: __new_finish <- %R7
	.loc	59 754 11               @ /usr/bin/../lib/gcc/arm-linux-gnueabihf/6.3.0/../../../../include/c++/6.3.0/bits/stl_algobase.h:754:11
	lsl	r2, r5, #2
	mov	r1, #0
	mov	r0, r7
	bl	memset
.Ltmp790:
	.loc	62 578 36               @ /usr/bin/../lib/gcc/arm-linux-gnueabihf/6.3.0/../../../../include/c++/6.3.0/bits/vector.tcc:578:36
	ldr	r0, [r4]
.Ltmp791:
	@DEBUG_VALUE: _M_deallocate:__p <- %R0
	@DEBUG_VALUE: deallocate:__p <- %R0
	@DEBUG_VALUE: deallocate:__p <- %R0
	.loc	59 754 11               @ /usr/bin/../lib/gcc/arm-linux-gnueabihf/6.3.0/../../../../include/c++/6.3.0/bits/stl_algobase.h:754:11
	add	r5, r7, r5, lsl #2
.Ltmp792:
	@DEBUG_VALUE: __new_finish <- %R5
	.loc	10 177 6                @ /usr/bin/../lib/gcc/arm-linux-gnueabihf/6.3.0/../../../../include/c++/6.3.0/bits/stl_vector.h:177:6
	cmp	r0, #0
	beq	.LBB10_10
.Ltmp793:
@ BB#9:
	@DEBUG_VALUE: __new_finish <- %R5
	@DEBUG_VALUE: deallocate:__p <- %R0
	@DEBUG_VALUE: deallocate:__p <- %R0
	@DEBUG_VALUE: _M_deallocate:__p <- %R0
	@DEBUG_VALUE: __uninitialized_default_n_a<float *, unsigned int, float>:__first <- %R7
	@DEBUG_VALUE: __uninitialized_default_n<float *, unsigned int>:__first <- %R7
	@DEBUG_VALUE: __uninit_default_n<float *, unsigned int>:__first <- %R7
	@DEBUG_VALUE: fill_n<float *, unsigned int, float>:__first <- %R7
	@DEBUG_VALUE: __fill_n_a<float *, unsigned int, float>:__first <- %R7
	@DEBUG_VALUE: allocate:__n <- %R8
	@DEBUG_VALUE: allocate:__n <- %R8
	@DEBUG_VALUE: __len <- %R8
	@DEBUG_VALUE: _M_allocate:__n <- %R8
	@DEBUG_VALUE: size:this <- %R4
	@DEBUG_VALUE: _M_default_append:this <- %R4
	.loc	6 110 9                 @ /usr/bin/../lib/gcc/arm-linux-gnueabihf/6.3.0/../../../../include/c++/6.3.0/ext/new_allocator.h:110:9
	bl	_ZdlPv
.Ltmp794:
.LBB10_10:                              @ %_ZNSt12_Vector_baseIfSaIfEE13_M_deallocateEPfj.exit31
	@DEBUG_VALUE: __new_finish <- %R5
	@DEBUG_VALUE: __uninitialized_default_n_a<float *, unsigned int, float>:__first <- %R7
	@DEBUG_VALUE: __uninitialized_default_n<float *, unsigned int>:__first <- %R7
	@DEBUG_VALUE: __uninit_default_n<float *, unsigned int>:__first <- %R7
	@DEBUG_VALUE: fill_n<float *, unsigned int, float>:__first <- %R7
	@DEBUG_VALUE: __fill_n_a<float *, unsigned int, float>:__first <- %R7
	@DEBUG_VALUE: allocate:__n <- %R8
	@DEBUG_VALUE: allocate:__n <- %R8
	@DEBUG_VALUE: __len <- %R8
	@DEBUG_VALUE: _M_allocate:__n <- %R8
	@DEBUG_VALUE: size:this <- %R4
	@DEBUG_VALUE: _M_default_append:this <- %R4
	.loc	62 581 31               @ /usr/bin/../lib/gcc/arm-linux-gnueabihf/6.3.0/../../../../include/c++/6.3.0/bits/vector.tcc:581:31
	str	r6, [r4]
	.loc	62 583 54               @ /usr/bin/../lib/gcc/arm-linux-gnueabihf/6.3.0/../../../../include/c++/6.3.0/bits/vector.tcc:583:54
	add	r0, r6, r8, lsl #2
	.loc	62 582 32               @ /usr/bin/../lib/gcc/arm-linux-gnueabihf/6.3.0/../../../../include/c++/6.3.0/bits/vector.tcc:582:32
	str	r5, [r4, #4]
	.loc	62 583 40               @ /usr/bin/../lib/gcc/arm-linux-gnueabihf/6.3.0/../../../../include/c++/6.3.0/bits/vector.tcc:583:40
	str	r0, [r4, #8]
.Ltmp795:
.LBB10_11:
	@DEBUG_VALUE: _M_default_append:this <- %R4
	.loc	62 586 5 discriminator 2 @ /usr/bin/../lib/gcc/arm-linux-gnueabihf/6.3.0/../../../../include/c++/6.3.0/bits/vector.tcc:586:5
	pop	{r4, r5, r6, r7, r8, r10, r11, pc}
.Ltmp796:
.LBB10_12:                              @ %_ZSt27__uninitialized_default_n_aIPfjfET_S1_T0_RSaIT1_E.exit
	@DEBUG_VALUE: _M_default_append:this <- %R4
	@DEBUG_VALUE: _M_default_append:__n <- %R5
	@DEBUG_VALUE: __uninitialized_default_n<float *, unsigned int>:__assignable <- 1
	@DEBUG_VALUE: __niter <- %R5
	.loc	59 754 11               @ /usr/bin/../lib/gcc/arm-linux-gnueabihf/6.3.0/../../../../include/c++/6.3.0/bits/stl_algobase.h:754:11
	lsl	r2, r5, #2
	mov	r0, r7
	mov	r1, #0
	bl	memset
	add	r0, r7, r5, lsl #2
.Ltmp797:
	.loc	62 548 32               @ /usr/bin/../lib/gcc/arm-linux-gnueabihf/6.3.0/../../../../include/c++/6.3.0/bits/vector.tcc:548:32
	str	r0, [r4, #4]
.Ltmp798:
	.loc	62 586 5 discriminator 2 @ /usr/bin/../lib/gcc/arm-linux-gnueabihf/6.3.0/../../../../include/c++/6.3.0/bits/vector.tcc:586:5
	pop	{r4, r5, r6, r7, r8, r10, r11, pc}
.Ltmp799:
.LBB10_13:
	@DEBUG_VALUE: _M_check_len:__n <- %R5
	@DEBUG_VALUE: size:this <- %R4
	@DEBUG_VALUE: _M_default_append:this <- %R4
	@DEBUG_VALUE: _M_default_append:__n <- %R5
	.loc	10 1423 4               @ /usr/bin/../lib/gcc/arm-linux-gnueabihf/6.3.0/../../../../include/c++/6.3.0/bits/stl_vector.h:1423:4
	movw	r0, :lower16:.L.str.21
	movt	r0, :upper16:.L.str.21
.Ltmp800:
	@DEBUG_VALUE: _M_check_len:__s <- %R0
	mov	lr, pc
	b	_ZSt20__throw_length_errorPKc
.Ltmp801:
.LBB10_14:
	@DEBUG_VALUE: _M_check_len:__len <- %R0
	@DEBUG_VALUE: allocate:__n <- %R8
	@DEBUG_VALUE: allocate:__n <- %R8
	@DEBUG_VALUE: __len <- %R8
	@DEBUG_VALUE: _M_allocate:__n <- %R8
	@DEBUG_VALUE: _M_check_len:__n <- %R5
	@DEBUG_VALUE: size:this <- %R4
	@DEBUG_VALUE: _M_default_append:this <- %R4
	@DEBUG_VALUE: _M_default_append:__n <- %R5
	.loc	6 102 4                 @ /usr/bin/../lib/gcc/arm-linux-gnueabihf/6.3.0/../../../../include/c++/6.3.0/ext/new_allocator.h:102:4
	mov	lr, pc
	b	_ZSt17__throw_bad_allocv
.Ltmp802:
.Lfunc_end10:
	.size	_ZNSt6vectorIfSaIfEE17_M_default_appendEj, .Lfunc_end10-_ZNSt6vectorIfSaIfEE17_M_default_appendEj
	.cfi_endproc
	.fnend

	.section	.text.startup,"ax",%progbits
	.p2align	2
	.type	_GLOBAL__sub_I_render.ii,%function
_GLOBAL__sub_I_render.ii:               @ @_GLOBAL__sub_I_render.ii
.Lfunc_begin11:
	.loc	39 0 0                  @ /root/Bela/projects/Autotune/build/render.cpp:0:0
	.fnstart
	.cfi_startproc
@ BB#0:
	.save	{r4, r5, r6, r7, r8, r10, r11, lr}
	push	{r4, r5, r6, r7, r8, r10, r11, lr}
.Ltmp803:
	.cfi_def_cfa_offset 32
.Ltmp804:
	.cfi_offset lr, -4
.Ltmp805:
	.cfi_offset r11, -8
.Ltmp806:
	.cfi_offset r10, -12
.Ltmp807:
	.cfi_offset r8, -16
.Ltmp808:
	.cfi_offset r7, -20
.Ltmp809:
	.cfi_offset r6, -24
.Ltmp810:
	.cfi_offset r5, -28
.Ltmp811:
	.cfi_offset r4, -32
	.setfp	r11, sp, #24
	add	r11, sp, #24
.Ltmp812:
	.cfi_def_cfa r11, 8
.Ltmp813:
	.loc	1 27 6 prologue_end     @ /root/Bela/projects/Autotune/render.cpp:27:6
	movw	r5, :lower16:gMidi
	movt	r5, :upper16:gMidi
	mov	r0, r5
	bl	_ZN4MidiC1Ev
	.loc	1 27 6 is_stmt 0 discriminator 1 @ /root/Bela/projects/Autotune/render.cpp:27:6
	movw	r8, :lower16:__dso_handle
	movw	r0, :lower16:_ZN4MidiD1Ev
	movt	r8, :upper16:__dso_handle
	movt	r0, :upper16:_ZN4MidiD1Ev
	mov	r1, r5
	mov	r2, r8
	bl	__cxa_atexit
.Ltmp814:
	.loc	3 47 18 is_stmt 1       @ ./libraries/Fft/Fft.h:47:18
	movw	r5, :lower16:.L_MergedGlobals.2
.Ltmp815:
	.loc	1 30 5 discriminator 1  @ /root/Bela/projects/Autotune/render.cpp:30:5
	movw	r0, :lower16:_ZN3FftD2Ev
.Ltmp816:
	.loc	3 47 18                 @ ./libraries/Fft/Fft.h:47:18
	movt	r5, :upper16:.L_MergedGlobals.2
	mov	r4, #0
.Ltmp817:
	.loc	1 30 5 discriminator 1  @ /root/Bela/projects/Autotune/render.cpp:30:5
	movt	r0, :upper16:_ZN3FftD2Ev
	mov	r1, r5
	mov	r2, r8
.Ltmp818:
	.loc	3 47 18                 @ ./libraries/Fft/Fft.h:47:18
	str	r4, [r5]
	.loc	3 48 26                 @ ./libraries/Fft/Fft.h:48:26
	str	r4, [r5, #4]
	.loc	3 49 29                 @ ./libraries/Fft/Fft.h:49:29
	str	r4, [r5, #8]
.Ltmp819:
	.loc	1 30 5 discriminator 1  @ /root/Bela/projects/Autotune/render.cpp:30:5
	bl	__cxa_atexit
.Ltmp820:
	.loc	10 87 22                @ /usr/bin/../lib/gcc/arm-linux-gnueabihf/6.3.0/../../../../include/c++/6.3.0/bits/stl_vector.h:87:22
	movw	r6, :lower16:.L_MergedGlobals
.Ltmp821:
	.loc	1 38 20 discriminator 1 @ /root/Bela/projects/Autotune/render.cpp:38:20
	movw	r7, :lower16:_ZNSt6vectorIfSaIfEED2Ev
.Ltmp822:
	.loc	10 87 22                @ /usr/bin/../lib/gcc/arm-linux-gnueabihf/6.3.0/../../../../include/c++/6.3.0/bits/stl_vector.h:87:22
	movt	r6, :upper16:.L_MergedGlobals
.Ltmp823:
	.loc	1 38 20 discriminator 1 @ /root/Bela/projects/Autotune/render.cpp:38:20
	movt	r7, :upper16:_ZNSt6vectorIfSaIfEED2Ev
.Ltmp824:
	.loc	10 87 22                @ /usr/bin/../lib/gcc/arm-linux-gnueabihf/6.3.0/../../../../include/c++/6.3.0/bits/stl_vector.h:87:22
	mov	r1, r6
.Ltmp825:
	.loc	1 38 20 discriminator 1 @ /root/Bela/projects/Autotune/render.cpp:38:20
	mov	r0, r7
.Ltmp826:
	.loc	10 87 22                @ /usr/bin/../lib/gcc/arm-linux-gnueabihf/6.3.0/../../../../include/c++/6.3.0/bits/stl_vector.h:87:22
	str	r4, [r1, #64]!
.Ltmp827:
	@DEBUG_VALUE: vector:this <- %R1
	.loc	1 38 20 discriminator 1 @ /root/Bela/projects/Autotune/render.cpp:38:20
	mov	r2, r8
.Ltmp828:
	.loc	10 87 34                @ /usr/bin/../lib/gcc/arm-linux-gnueabihf/6.3.0/../../../../include/c++/6.3.0/bits/stl_vector.h:87:34
	str	r4, [r6, #68]
	.loc	10 87 47 is_stmt 0      @ /usr/bin/../lib/gcc/arm-linux-gnueabihf/6.3.0/../../../../include/c++/6.3.0/bits/stl_vector.h:87:47
	str	r4, [r6, #72]
.Ltmp829:
	.loc	1 38 20 is_stmt 1 discriminator 1 @ /root/Bela/projects/Autotune/render.cpp:38:20
	bl	__cxa_atexit
.Ltmp830:
	.loc	10 87 22                @ /usr/bin/../lib/gcc/arm-linux-gnueabihf/6.3.0/../../../../include/c++/6.3.0/bits/stl_vector.h:87:22
	mov	r1, r6
.Ltmp831:
	.loc	1 39 20 discriminator 1 @ /root/Bela/projects/Autotune/render.cpp:39:20
	mov	r0, r7
.Ltmp832:
	.loc	10 87 22                @ /usr/bin/../lib/gcc/arm-linux-gnueabihf/6.3.0/../../../../include/c++/6.3.0/bits/stl_vector.h:87:22
	str	r4, [r1, #76]!
.Ltmp833:
	.loc	1 39 20 discriminator 1 @ /root/Bela/projects/Autotune/render.cpp:39:20
	mov	r2, r8
.Ltmp834:
	.loc	10 87 34                @ /usr/bin/../lib/gcc/arm-linux-gnueabihf/6.3.0/../../../../include/c++/6.3.0/bits/stl_vector.h:87:34
	str	r4, [r6, #80]
	.loc	10 87 47 is_stmt 0      @ /usr/bin/../lib/gcc/arm-linux-gnueabihf/6.3.0/../../../../include/c++/6.3.0/bits/stl_vector.h:87:47
	str	r4, [r6, #84]
.Ltmp835:
	.loc	1 39 20 is_stmt 1 discriminator 1 @ /root/Bela/projects/Autotune/render.cpp:39:20
	bl	__cxa_atexit
.Ltmp836:
	.loc	10 87 22                @ /usr/bin/../lib/gcc/arm-linux-gnueabihf/6.3.0/../../../../include/c++/6.3.0/bits/stl_vector.h:87:22
	mov	r1, r6
.Ltmp837:
	.loc	1 51 20 discriminator 1 @ /root/Bela/projects/Autotune/render.cpp:51:20
	mov	r0, r7
.Ltmp838:
	.loc	10 87 22                @ /usr/bin/../lib/gcc/arm-linux-gnueabihf/6.3.0/../../../../include/c++/6.3.0/bits/stl_vector.h:87:22
	str	r4, [r1, #88]!
.Ltmp839:
	.loc	1 51 20 discriminator 1 @ /root/Bela/projects/Autotune/render.cpp:51:20
	mov	r2, r8
.Ltmp840:
	.loc	10 87 34                @ /usr/bin/../lib/gcc/arm-linux-gnueabihf/6.3.0/../../../../include/c++/6.3.0/bits/stl_vector.h:87:34
	str	r4, [r6, #92]
	.loc	10 87 47 is_stmt 0      @ /usr/bin/../lib/gcc/arm-linux-gnueabihf/6.3.0/../../../../include/c++/6.3.0/bits/stl_vector.h:87:47
	str	r4, [r6, #96]
.Ltmp841:
	.loc	1 51 20 is_stmt 1 discriminator 1 @ /root/Bela/projects/Autotune/render.cpp:51:20
	bl	__cxa_atexit
.Ltmp842:
	.loc	10 87 22                @ /usr/bin/../lib/gcc/arm-linux-gnueabihf/6.3.0/../../../../include/c++/6.3.0/bits/stl_vector.h:87:22
	mov	r1, r6
.Ltmp843:
	.loc	1 58 20 discriminator 1 @ /root/Bela/projects/Autotune/render.cpp:58:20
	mov	r0, r7
.Ltmp844:
	.loc	10 87 22                @ /usr/bin/../lib/gcc/arm-linux-gnueabihf/6.3.0/../../../../include/c++/6.3.0/bits/stl_vector.h:87:22
	str	r4, [r1, #100]!
.Ltmp845:
	.loc	1 58 20 discriminator 1 @ /root/Bela/projects/Autotune/render.cpp:58:20
	mov	r2, r8
.Ltmp846:
	.loc	10 87 34                @ /usr/bin/../lib/gcc/arm-linux-gnueabihf/6.3.0/../../../../include/c++/6.3.0/bits/stl_vector.h:87:34
	str	r4, [r6, #104]
	.loc	10 87 47 is_stmt 0      @ /usr/bin/../lib/gcc/arm-linux-gnueabihf/6.3.0/../../../../include/c++/6.3.0/bits/stl_vector.h:87:47
	str	r4, [r6, #108]
.Ltmp847:
	.loc	1 58 20 is_stmt 1 discriminator 1 @ /root/Bela/projects/Autotune/render.cpp:58:20
	bl	__cxa_atexit
.Ltmp848:
	.loc	10 87 22                @ /usr/bin/../lib/gcc/arm-linux-gnueabihf/6.3.0/../../../../include/c++/6.3.0/bits/stl_vector.h:87:22
	str	r4, [r6, #112]!
.Ltmp849:
	.loc	1 59 20 discriminator 1 @ /root/Bela/projects/Autotune/render.cpp:59:20
	mov	r0, r7
	mov	r2, r8
	mov	r1, r6
.Ltmp850:
	.loc	10 87 34                @ /usr/bin/../lib/gcc/arm-linux-gnueabihf/6.3.0/../../../../include/c++/6.3.0/bits/stl_vector.h:87:34
	str	r4, [r6, #4]
	.loc	10 87 47 is_stmt 0      @ /usr/bin/../lib/gcc/arm-linux-gnueabihf/6.3.0/../../../../include/c++/6.3.0/bits/stl_vector.h:87:47
	str	r4, [r6, #8]
.Ltmp851:
	.loc	1 59 20 is_stmt 1 discriminator 1 @ /root/Bela/projects/Autotune/render.cpp:59:20
	bl	__cxa_atexit
.Ltmp852:
	.loc	30 110 25               @ /usr/bin/../lib/gcc/arm-linux-gnueabihf/6.3.0/../../../../include/c++/6.3.0/bits/basic_string.h:110:25
	add	r0, r5, #24
	str	r0, [r5, #16]
.Ltmp853:
	@DEBUG_VALUE: _S_copy:__n <- 10
	@DEBUG_VALUE: _M_construct<const char *>:__dnew <- 10
	.loc	32 290 33               @ /usr/bin/../lib/gcc/arm-linux-gnueabihf/6.3.0/../../../../include/c++/6.3.0/bits/char_traits.h:290:33
	movw	r0, :lower16:.L.str.8
.Ltmp854:
	.loc	30 110 25               @ /usr/bin/../lib/gcc/arm-linux-gnueabihf/6.3.0/../../../../include/c++/6.3.0/bits/basic_string.h:110:25
	add	r1, r5, #16
.Ltmp855:
	@DEBUG_VALUE: _M_length:this <- %R1
	@DEBUG_VALUE: _M_set_length:__n <- 10
	@DEBUG_VALUE: _M_set_length:this <- %R1
	@DEBUG_VALUE: _M_construct<const char *>:this <- %R1
	@DEBUG_VALUE: _M_construct_aux<const char *>:this <- %R1
	@DEBUG_VALUE: _M_construct<const char *>:this <- %R1
	@DEBUG_VALUE: basic_string:this <- %R1
	.loc	32 290 33               @ /usr/bin/../lib/gcc/arm-linux-gnueabihf/6.3.0/../../../../include/c++/6.3.0/bits/char_traits.h:290:33
	movt	r0, :upper16:.L.str.8
.Ltmp856:
	.loc	1 62 13 discriminator 6 @ /root/Bela/projects/Autotune/render.cpp:62:13
	mov	r2, r8
.Ltmp857:
	.loc	32 290 33               @ /usr/bin/../lib/gcc/arm-linux-gnueabihf/6.3.0/../../../../include/c++/6.3.0/bits/char_traits.h:290:33
	vldr	d16, [r0]
	movw	r0, #30305
	strh	r0, [r5, #32]
	mov	r0, #10
.Ltmp858:
	@DEBUG_VALUE: _M_length:__length <- 10
	vstr	d16, [r5, #24]
.Ltmp859:
	.loc	30 132 26               @ /usr/bin/../lib/gcc/arm-linux-gnueabihf/6.3.0/../../../../include/c++/6.3.0/bits/basic_string.h:132:26
	str	r0, [r5, #20]
.Ltmp860:
	.loc	1 62 13 discriminator 6 @ /root/Bela/projects/Autotune/render.cpp:62:13
	movw	r0, :lower16:_ZNSt7__cxx1112basic_stringIcSt11char_traitsIcESaIcEED2Ev
	movt	r0, :upper16:_ZNSt7__cxx1112basic_stringIcSt11char_traitsIcESaIcEED2Ev
.Ltmp861:
	.loc	32 243 14               @ /usr/bin/../lib/gcc/arm-linux-gnueabihf/6.3.0/../../../../include/c++/6.3.0/bits/char_traits.h:243:14
	strb	r4, [r5, #34]
.Ltmp862:
	.loc	1 62 13 discriminator 6 @ /root/Bela/projects/Autotune/render.cpp:62:13
	bl	__cxa_atexit
.Ltmp863:
	.loc	10 87 34                @ /usr/bin/../lib/gcc/arm-linux-gnueabihf/6.3.0/../../../../include/c++/6.3.0/bits/stl_vector.h:87:34
	movw	r1, :lower16:gPlayer
	vmov.i32	q8, #0x0
	movt	r1, :upper16:gPlayer
.Ltmp864:
	@DEBUG_VALUE: MonoFilePlayer:this <- %R1
	.loc	1 65 16 discriminator 1 @ /root/Bela/projects/Autotune/render.cpp:65:16
	mov	r2, r8
.Ltmp865:
	.loc	10 87 34                @ /usr/bin/../lib/gcc/arm-linux-gnueabihf/6.3.0/../../../../include/c++/6.3.0/bits/stl_vector.h:87:34
	mov	r0, r1
	vst1.32	{d16, d17}, [r0]!
	strh	r4, [r0]
.Ltmp866:
	.loc	1 65 16 discriminator 1 @ /root/Bela/projects/Autotune/render.cpp:65:16
	movw	r0, :lower16:_ZN14MonoFilePlayerD2Ev
	movt	r0, :upper16:_ZN14MonoFilePlayerD2Ev
	bl	__cxa_atexit
.Ltmp867:
	.loc	1 74 7                  @ /root/Bela/projects/Autotune/render.cpp:74:7
	movw	r6, :lower16:gScope
	movt	r6, :upper16:gScope
	mov	r0, r6
	bl	_ZN5ScopeC1Ev
	.loc	1 74 7 is_stmt 0 discriminator 1 @ /root/Bela/projects/Autotune/render.cpp:74:7
	movw	r0, :lower16:_ZN5ScopeD1Ev
	mov	r1, r6
	movt	r0, :upper16:_ZN5ScopeD1Ev
	mov	r2, r8
	bl	__cxa_atexit
.Ltmp868:
	.loc	1 77 5 is_stmt 1        @ /root/Bela/projects/Autotune/render.cpp:77:5
	movw	r6, :lower16:gGui
	movt	r6, :upper16:gGui
	mov	r0, r6
	bl	_ZN3GuiC1Ev
	.loc	1 77 5 is_stmt 0 discriminator 1 @ /root/Bela/projects/Autotune/render.cpp:77:5
	movw	r0, :lower16:_ZN3GuiD1Ev
	mov	r1, r6
	movt	r0, :upper16:_ZN3GuiD1Ev
	mov	r2, r8
	bl	__cxa_atexit
.Ltmp869:
	.loc	1 78 15 is_stmt 1       @ /root/Bela/projects/Autotune/render.cpp:78:15
	add	r5, r5, #40
	mov	r0, r5
	bl	_ZN13GuiControllerC1Ev
	.loc	1 78 15 is_stmt 0 discriminator 1 @ /root/Bela/projects/Autotune/render.cpp:78:15
	movw	r0, :lower16:_ZN13GuiControllerD1Ev
	mov	r1, r5
	movt	r0, :upper16:_ZN13GuiControllerD1Ev
	mov	r2, r8
.Ltmp870:
	@DEBUG_VALUE: vector:this <- %R1
	@DEBUG_VALUE: vector:this <- %R1
	@DEBUG_VALUE: vector:this <- %R1
	@DEBUG_VALUE: vector:this <- %R6
	@DEBUG_VALUE: _S_copy:__s <- %R0
	@DEBUG_VALUE: _S_copy:__d <- %R0
	pop	{r4, r5, r6, r7, r8, r10, r11, lr}
.Ltmp871:
	b	__cxa_atexit
.Ltmp872:
.Lfunc_end11:
	.size	_GLOBAL__sub_I_render.ii, .Lfunc_end11-_GLOBAL__sub_I_render.ii
	.cfi_endproc
	.fnend

	.type	gMidi,%object           @ @gMidi
	.bss
	.globl	gMidi
	.p2align	2
gMidi:
	.zero	136
	.size	gMidi, 136

	.type	.L.str,%object          @ @.str
	.section	.rodata.str1.1,"aMS",%progbits,1
.L.str:
	.asciz	"hw:1,0,0"
	.size	.L.str, 9

	.type	gMidiPort0,%object      @ @gMidiPort0
	.data
	.globl	gMidiPort0
	.p2align	2
gMidiPort0:
	.long	.L.str
	.size	gMidiPort0, 4

	.type	gPhase,%object          @ @gPhase
	.bss
	.globl	gPhase
	.p2align	2
gPhase:
	.long	0                       @ float 0
	.size	gPhase, 4

	.type	gFrequency,%object      @ @gFrequency
	.globl	gFrequency
	.p2align	2
gFrequency:
	.long	0                       @ float 0
	.size	gFrequency, 4

	.type	gAmplitude,%object      @ @gAmplitude
	.globl	gAmplitude
	.p2align	2
gAmplitude:
	.long	0                       @ float 0
	.size	gAmplitude, 4

	.type	.L.str.8,%object        @ @.str.8
	.section	.rodata.str1.8,"aMS",%progbits,1
	.p2align	3
.L.str.8:
	.asciz	"file_1.wav"
	.size	.L.str.8, 11

	.type	gPlayer,%object         @ @gPlayer
	.bss
	.globl	gPlayer
	.p2align	2
gPlayer:
	.zero	20
	.size	gPlayer, 20

	.type	gScope,%object          @ @gScope
	.globl	gScope
	.p2align	2
gScope:
	.zero	212
	.size	gScope, 212

	.type	gGui,%object            @ @gGui
	.globl	gGui
	.p2align	2
gGui:
	.zero	136
	.size	gGui, 136

	.type	.L.str.13,%object       @ @.str.13
	.section	.rodata.str1.1,"aMS",%progbits,1
.L.str.13:
	.asciz	"Error loading audio file '%s'\n"
	.size	.L.str.13, 31

	.type	.L.str.14,%object       @ @.str.14
.L.str.14:
	.asciz	"Loaded the audio file '%s' with %d frames (%.1f seconds)\n"
	.size	.L.str.14, 58

	.type	.L.str.15,%object       @ @.str.15
.L.str.15:
	.asciz	"gui"
	.size	.L.str.15, 4

	.type	.L.str.16,%object       @ @.str.16
	.section	.rodata.str1.8,"aMS",%progbits,1
	.p2align	3
.L.str.16:
	.asciz	"Pitch Shift Variation"
	.size	.L.str.16, 22

	.type	.L.str.17,%object       @ @.str.17
	.p2align	3
.L.str.17:
	.asciz	"Partial Pitch Shift"
	.size	.L.str.17, 20

	.type	.L.str.18,%object       @ @.str.18
	.p2align	3
.L.str.18:
	.asciz	"Smooth Pitch Shift"
	.size	.L.str.18, 19

	.type	.L.str.19,%object       @ @.str.19
	.section	.rodata.str1.1,"aMS",%progbits,1
.L.str.19:
	.asciz	"bela-process-fft"
	.size	.L.str.19, 17

	.type	.L.str.21,%object       @ @.str.21
.L.str.21:
	.asciz	"vector::_M_default_append"
	.size	.L.str.21, 26

	.section	.init_array,"aw",%init_array
	.p2align	2
	.long	_GLOBAL__sub_I_render.ii(target1)
	.type	.L_MergedGlobals,%object @ @_MergedGlobals
	.data
	.p2align	4
.L_MergedGlobals:
	.long	1056964608              @ float 0.5
	.long	1065353216              @ float 1
	.long	0                       @ 0x0
	.long	0                       @ 0x0
	.long	0                       @ 0x0
	.long	0                       @ float 0
	.long	0                       @ float 0
	.long	0                       @ float 0
	.long	0                       @ float 0
	.long	1280                    @ 0x500
	.long	0                       @ 0x0
	.long	0
	.long	0                       @ 0x0
	.zero	4
	.long	0                       @ double 0
	.long	0
	.zero	12
	.zero	12
	.zero	12
	.zero	12
	.zero	12
	.zero	4
	.size	.L_MergedGlobals, 128

	.type	.L_MergedGlobals.2,%object @ @_MergedGlobals.2
	.local	.L_MergedGlobals.2
	.comm	.L_MergedGlobals.2,104,16
	.type	.L_MergedGlobals.3,%object @ @_MergedGlobals.3
	.local	.L_MergedGlobals.3
	.comm	.L_MergedGlobals.3,124,16
	.type	.L_MergedGlobals.4,%object @ @_MergedGlobals.4
	.local	.L_MergedGlobals.4
	.comm	.L_MergedGlobals.4,36,16