	.text
	.syntax unified
	.eabi_attribute	67, "2.09"	@ Tag_conformance
	.cpu	cortex-a8
	.eabi_attribute	6, 10	@ Tag_CPU_arch
	.eabi_attribute	7, 65	@ Tag_CPU_arch_profile
	.eabi_attribute	8, 1	@ Tag_ARM_ISA_use
	.eabi_attribute	9, 2	@ Tag_THUMB_ISA_use
	.fpu	neon
	.eabi_attribute	17, 1	@ Tag_ABI_PCS_GOT_use
	.eabi_attribute	20, 2	@ Tag_ABI_FP_denormal
	.eabi_attribute	23, 1	@ Tag_ABI_FP_number_model
	.eabi_attribute	34, 1	@ Tag_CPU_unaligned_access
	.eabi_attribute	24, 1	@ Tag_ABI_align_needed
	.eabi_attribute	25, 1	@ Tag_ABI_align_preserved
	.eabi_attribute	28, 1	@ Tag_ABI_VFP_args
	.eabi_attribute	38, 1	@ Tag_ABI_FP_16bit_format
	.eabi_attribute	18, 4	@ Tag_ABI_PCS_wchar_t
	.eabi_attribute	26, 2	@ Tag_ABI_enum_size
	.eabi_attribute	14, 0	@ Tag_ABI_PCS_R9_use
	.eabi_attribute	68, 1	@ Tag_Virtualization_use
	.file	"/root/Bela/projects/Autotune/build/targetfreq.bc"
	.file	1 "/usr/bin/../lib/gcc/arm-linux-gnueabihf/6.3.0/../../../../include/arm-linux-gnueabihf/c++/6.3.0/bits" "c++config.h"
	.file	2 "/usr/bin/../lib/gcc/arm-linux-gnueabihf/6.3.0/../../../../include/c++/6.3.0/ext" "type_traits.h"
	.file	3 "/usr/bin/../lib/gcc/arm-linux-gnueabihf/6.3.0/../../../../include/c++/6.3.0" "cmath"
	.file	4 "/usr/include/arm-linux-gnueabihf/bits" "math-finite.h"
	.file	5 "/usr/include/arm-linux-gnueabihf/bits" "mathcalls.h"
	.file	6 "/usr/include/arm-linux-gnueabihf/bits" "mathdef.h"
	.file	7 "/usr/bin/../lib/gcc/arm-linux-gnueabihf/6.3.0/../../../../include/c++/6.3.0/debug" "debug.h"
	.file	8 "/usr/include" "wchar.h"
	.file	9 "/usr/lib/llvm-3.9/bin/../lib/clang/3.9.1/include" "stddef.h"
	.file	10 "/usr/include" "libio.h"
	.file	11 "/usr/include/arm-linux-gnueabihf/bits" "types.h"
	.file	12 "/usr/include" "stdio.h"
	.file	13 "/usr/lib/llvm-3.9/bin/../lib/clang/3.9.1/include" "stdarg.h"
	.file	14 "/usr/include" "stdint.h"
	.file	15 "/usr/bin/../lib/gcc/arm-linux-gnueabihf/6.3.0/../../../../include/c++/6.3.0/bits" "exception_ptr.h"
	.file	16 "/usr/include" "locale.h"
	.file	17 "/usr/include" "ctype.h"
	.file	18 "/usr/include" "stdlib.h"
	.file	19 "/usr/include/arm-linux-gnueabihf/bits" "stdlib-float.h"
	.file	20 "/usr/include/arm-linux-gnueabihf/bits" "stdlib-bsearch.h"
	.file	21 "/usr/bin/../lib/gcc/arm-linux-gnueabihf/6.3.0/../../../../include/c++/6.3.0" "cstdlib"
	.file	22 "/usr/include" "_G_config.h"
	.file	23 "/usr/include/arm-linux-gnueabihf/bits" "stdio.h"
	.file	24 "/usr/include" "wctype.h"
	.globl	_Z13getTargetFreqdi
	.p2align	3
	.type	_Z13getTargetFreqdi,%function
_Z13getTargetFreqdi:                    @ @_Z13getTargetFreqdi
.Lfunc_begin0:
	.file	25 "/root/Bela/projects/Autotune" "targetfreq.cpp"
	.loc	25 7 0                  @ /root/Bela/projects/Autotune/targetfreq.cpp:7:0
	.fnstart
	.cfi_startproc
@ BB#0:
	.save	{r11, lr}
	push	{r11, lr}
.Ltmp0:
	.cfi_def_cfa_offset 8
.Ltmp1:
	.cfi_offset lr, -4
.Ltmp2:
	.cfi_offset r11, -8
	.setfp	r11, sp
	mov	r11, sp
.Ltmp3:
	.cfi_def_cfa_register r11
	.vsave	{d8, d9}
	vpush	{d8, d9}
.Ltmp4:
	.cfi_offset d9, -16
.Ltmp5:
	.cfi_offset d8, -24
	@DEBUG_VALUE: getTargetFreq:actualFreq <- %D0
	@DEBUG_VALUE: getTargetFreq:counter <- %R0
.Ltmp6:
	.loc	25 17 49 prologue_end   @ /root/Bela/projects/Autotune/targetfreq.cpp:17:49
	vldr	d16, .LCPI0_0
.Ltmp7:
	@DEBUG_VALUE: getTargetFreq:C0 <- 1.635160e+01
	@DEBUG_VALUE: getTargetFreq:A4 <- 4.400000e+02
	vmul.f64	d0, d0, d16
.Ltmp8:
	.loc	25 17 33 is_stmt 0 discriminator 1 @ /root/Bela/projects/Autotune/targetfreq.cpp:17:33
	bl	__log2_finite
.Ltmp9:
	.loc	25 17 31                @ /root/Bela/projects/Autotune/targetfreq.cpp:17:31
	vmov.f64	d1, #1.200000e+01
	vmul.f64	d8, d0, d1
.Ltmp10:
	@DEBUG_VALUE: fmod<double, int>:__y <- 12
	@DEBUG_VALUE: getTargetFreq:semitonesFromC0 <- %D8
	@DEBUG_VALUE: fmod<double, int>:__x <- %D8
	.loc	3 316 14 is_stmt 1      @ /usr/bin/../lib/gcc/arm-linux-gnueabihf/6.3.0/../../../../include/c++/6.3.0/cmath:316:14
	vmov.f64	d0, d8
	bl	__fmod_finite
	vmov.f64	d9, d0
.Ltmp11:
	@DEBUG_VALUE: getTargetFreq:semitonesModded <- %D9
	.loc	25 24 29 discriminator 1 @ /root/Bela/projects/Autotune/targetfreq.cpp:24:29
	bl	round
.Ltmp12:
	@DEBUG_VALUE: getTargetFreq:roundedUp <- 0
	@DEBUG_VALUE: getTargetFreq:semitonesRounded <- %D0
	.loc	25 31 35                @ /root/Bela/projects/Autotune/targetfreq.cpp:31:35
	vcvt.s32.f64	s2, d0
	mov	r0, #1
	.loc	25 46 18                @ /root/Bela/projects/Autotune/targetfreq.cpp:46:18
	movw	r12, #43691
	movt	r12, #10922
	.loc	25 36 7                 @ /root/Bela/projects/Autotune/targetfreq.cpp:36:7
	vcmpe.f64	d0, d9
	vmrs	APSR_nzcv, fpscr
	.loc	25 31 35                @ /root/Bela/projects/Autotune/targetfreq.cpp:31:35
	vmov	r2, s2
.Ltmp13:
	@DEBUG_VALUE: getTargetFreq:semitone <- %R2
	.loc	25 19 33                @ /root/Bela/projects/Autotune/targetfreq.cpp:19:33
	vcvt.s32.f64	s0, d8
.Ltmp14:
	.loc	25 36 7                 @ /root/Bela/projects/Autotune/targetfreq.cpp:36:7
	mvnge	r0, #0
	add	r1, r0, r2
.Ltmp15:
	@DEBUG_VALUE: getTargetFreq:targetSemitone <- undef
	.loc	25 43 7                 @ /root/Bela/projects/Autotune/targetfreq.cpp:43:7
	cmp	r1, #0
	addlt	r1, r1, #12
	.loc	25 46 18                @ /root/Bela/projects/Autotune/targetfreq.cpp:46:18
	smmul	r3, r1, r12
	asr	r0, r3, #1
	add	r0, r0, r3, lsr #31
	.loc	25 19 33                @ /root/Bela/projects/Autotune/targetfreq.cpp:19:33
	vmov	r3, s0
	.loc	25 46 18                @ /root/Bela/projects/Autotune/targetfreq.cpp:46:18
	add	r0, r0, r0, lsl #1
	sub	r1, r1, r0, lsl #2
.Ltmp16:
	@DEBUG_VALUE: getTargetFreq:targetSemitone <- %R1
	.loc	25 49 22                @ /root/Bela/projects/Autotune/targetfreq.cpp:49:22
	sub	r0, r1, r2
.Ltmp17:
	.loc	25 49 7 is_stmt 0       @ /root/Bela/projects/Autotune/targetfreq.cpp:49:7
	cmp	r0, #3
	blt	.LBB0_2
.Ltmp18:
@ BB#1:
	@DEBUG_VALUE: getTargetFreq:targetSemitone <- %R1
	@DEBUG_VALUE: getTargetFreq:semitone <- %R2
	@DEBUG_VALUE: getTargetFreq:semitonesModded <- %D9
	@DEBUG_VALUE: fmod<double, int>:__x <- %D8
	@DEBUG_VALUE: getTargetFreq:semitonesFromC0 <- %D8
	.loc	25 50 20 is_stmt 1      @ /root/Bela/projects/Autotune/targetfreq.cpp:50:20
	sub	r1, r1, #12
.Ltmp19:
	@DEBUG_VALUE: getTargetFreq:targetSemitone <- %R1
	b	.LBB0_3
.Ltmp20:
.LBB0_2:
	@DEBUG_VALUE: getTargetFreq:targetSemitone <- %R1
	@DEBUG_VALUE: getTargetFreq:semitone <- %R2
	@DEBUG_VALUE: getTargetFreq:semitonesModded <- %D9
	@DEBUG_VALUE: fmod<double, int>:__x <- %D8
	@DEBUG_VALUE: getTargetFreq:semitonesFromC0 <- %D8
	.loc	25 51 23 discriminator 1 @ /root/Bela/projects/Autotune/targetfreq.cpp:51:23
	sub	r0, r2, r1
.Ltmp21:
	@DEBUG_VALUE: getTargetFreq:targetSemitone <- undef
	.loc	25 51 14 is_stmt 0 discriminator 1 @ /root/Bela/projects/Autotune/targetfreq.cpp:51:14
	cmp	r0, #2
	addgt	r1, r1, #12
.Ltmp22:
.LBB0_3:
	@DEBUG_VALUE: getTargetFreq:semitone <- %R2
	@DEBUG_VALUE: getTargetFreq:semitonesModded <- %D9
	@DEBUG_VALUE: fmod<double, int>:__x <- %D8
	@DEBUG_VALUE: getTargetFreq:semitonesFromC0 <- %D8
	.loc	25 55 63 is_stmt 1      @ /root/Bela/projects/Autotune/targetfreq.cpp:55:63
	smmul	r0, r3, r12
	.loc	25 56 31                @ /root/Bela/projects/Autotune/targetfreq.cpp:56:31
	vldr	d17, .LCPI0_1
	.loc	25 55 63                @ /root/Bela/projects/Autotune/targetfreq.cpp:55:63
	asr	r2, r0, #1
.Ltmp23:
	add	r0, r2, r0, lsr #31
	add	r0, r0, r0, lsl #1
	.loc	25 55 54 is_stmt 0      @ /root/Bela/projects/Autotune/targetfreq.cpp:55:54
	add	r0, r1, r0, lsl #2
	.loc	25 55 39                @ /root/Bela/projects/Autotune/targetfreq.cpp:55:39
	vmov	s0, r0
	vcvt.f64.s32	d16, s0
.Ltmp24:
	@DEBUG_VALUE: getTargetFreq:target <- %D16
	.loc	25 56 31 is_stmt 1      @ /root/Bela/projects/Autotune/targetfreq.cpp:56:31
	vmul.f64	d0, d16, d17
	.loc	25 56 17 is_stmt 0      @ /root/Bela/projects/Autotune/targetfreq.cpp:56:17
	bl	exp2
.Ltmp25:
	.loc	25 56 15                @ /root/Bela/projects/Autotune/targetfreq.cpp:56:15
	vldr	d16, .LCPI0_2
	vmul.f64	d0, d0, d16
.Ltmp26:
	@DEBUG_VALUE: getTargetFreq:target <- %D0
	.loc	25 58 3 is_stmt 1       @ /root/Bela/projects/Autotune/targetfreq.cpp:58:3
	vpop	{d8, d9}
.Ltmp27:
	pop	{r11, pc}
.Ltmp28:
	.p2align	3
@ BB#4:
.LCPI0_0:
	.long	1275894074              @ double 0.06115610292754288
	.long	1068453850
.LCPI0_1:
	.long	1431655765              @ double 0.083333333333333329
	.long	1068848469
.LCPI0_2:
	.long	1354938710              @ double 16.351597831287414
	.long	1076910594
.Lfunc_end0:
	.size	_Z13getTargetFreqdi, .Lfunc_end0-_Z13getTargetFreqdi
	.cfi_endproc
	.fnend

	.section	".note.GNU-stack","",%progbits
	.eabi_attribute	30, 2	@ Tag_ABI_optimization_goals